; ModuleID = 'qsort.cpp'
source_filename = "qsort.cpp"
target datalayout = "e-m:e-p270:32:32-p271:32:32-p272:64:64-i64:64-f80:128-n8:16:32:64-S128"
target triple = "x86_64-unknown-linux-gnu"

%"class.std::ios_base::Init" = type { i8 }
%"class.std::basic_ostream" = type { i32 (...)**, %"class.std::basic_ios" }
%"class.std::basic_ios" = type { %"class.std::ios_base", %"class.std::basic_ostream"*, i8, i8, %"class.std::basic_streambuf"*, %"class.std::ctype"*, %"class.std::num_put"*, %"class.std::num_get"* }
%"class.std::ios_base" = type { i32 (...)**, i64, i64, i32, i32, i32, %"struct.std::ios_base::_Callback_list"*, %"struct.std::ios_base::_Words", [8 x %"struct.std::ios_base::_Words"], i32, %"struct.std::ios_base::_Words"*, %"class.std::locale" }
%"struct.std::ios_base::_Callback_list" = type { %"struct.std::ios_base::_Callback_list"*, void (i32, %"class.std::ios_base"*, i32)*, i32, i32 }
%"struct.std::ios_base::_Words" = type { i8*, i64 }
%"class.std::locale" = type { %"class.std::locale::_Impl"* }
%"class.std::locale::_Impl" = type { i32, %"class.std::locale::facet"**, i64, %"class.std::locale::facet"**, i8** }
%"class.std::locale::facet" = type <{ i32 (...)**, i32, [4 x i8] }>
%"class.std::basic_streambuf" = type { i32 (...)**, i8*, i8*, i8*, i8*, i8*, i8*, %"class.std::locale" }
%"class.std::ctype" = type <{ %"class.std::locale::facet.base", [4 x i8], %struct.__locale_struct*, i8, [7 x i8], i32*, i32*, i16*, i8, [256 x i8], [256 x i8], i8, [6 x i8] }>
%"class.std::locale::facet.base" = type <{ i32 (...)**, i32 }>
%struct.__locale_struct = type { [13 x %struct.__locale_data*], i16*, i32*, i32*, [13 x i8*] }
%struct.__locale_data = type opaque
%"class.std::num_put" = type { %"class.std::locale::facet.base", [4 x i8] }
%"class.std::num_get" = type { %"class.std::locale::facet.base", [4 x i8] }
%"struct.std::less" = type { i8 }
%"class.std::binder2nd" = type { %"struct.std::less", i32 }
%"struct.std::bidirectional_iterator_tag" = type { i8 }
%struct.timeval = type { i64, i64 }
%struct.timezone = type { i32, i32 }

@_ZStL8__ioinit = internal global %"class.std::ios_base::Init" zeroinitializer, align 1, !dbg !0
@__dso_handle = external hidden global i8
@_ZSt4cerr = external dso_local global %"class.std::basic_ostream", align 8
@.str = private unnamed_addr constant [9 x i8] c"Sorting \00", align 1
@.str.1 = private unnamed_addr constant [10 x i8] c" integers\00", align 1
@_ZSt4cout = external dso_local global %"class.std::basic_ostream", align 8
@.str.2 = private unnamed_addr constant [12 x i8] c"PBBS-time: \00", align 1
@.str.3 = private unnamed_addr constant [2 x i8] c"\0A\00", align 1
@.str.4 = private unnamed_addr constant [27 x i8] c"Sort failed at location i=\00", align 1
@.str.5 = private unnamed_addr constant [9 x i8] c" a[i] = \00", align 1
@.str.6 = private unnamed_addr constant [11 x i8] c" a[i+1] = \00", align 1
@.str.7 = private unnamed_addr constant [16 x i8] c"Sort succeeded.\00", align 1
@.str.8 = private unnamed_addr constant [17 x i8] c"Invalid argument\00", align 1
@.str.9 = private unnamed_addr constant [15 x i8] c"Usage: qsort N\00", align 1
@.str.10 = private unnamed_addr constant [38 x i8] c"       N = number of elements to sort\00", align 1
@llvm.global_ctors = appending global [1 x { i32, void ()*, i8* }] [{ i32, void ()*, i8* } { i32 65535, void ()* @_GLOBAL__sub_I_qsort.cpp, i8* null }]

declare dso_local void @_ZNSt8ios_base4InitC1Ev(%"class.std::ios_base::Init"* noundef nonnull align 1 dereferenceable(1)) unnamed_addr #0

; Function Attrs: nounwind
declare dso_local void @_ZNSt8ios_base4InitD1Ev(%"class.std::ios_base::Init"* noundef nonnull align 1 dereferenceable(1)) unnamed_addr #1

; Function Attrs: nofree nounwind
declare dso_local i32 @__cxa_atexit(void (i8*)*, i8*, i8*) local_unnamed_addr #2

; Function Attrs: mustprogress nofree noinline norecurse nosync nounwind readnone uwtable willreturn
define dso_local void @_Z12startup_cilkv() local_unnamed_addr #3 !dbg !945 {
entry:
  %g = alloca double, align 8
  %syncreg = tail call token @llvm.syncregion.start(), !dbg !955
  %g.0.g.0.g.0..sroa_cast = bitcast double* %g to i8*, !dbg !956
  call void @llvm.lifetime.start.p0i8(i64 8, i8* nonnull %g.0.g.0.g.0..sroa_cast), !dbg !956
  call void @llvm.dbg.value(metadata double 2.000000e+00, metadata !947, metadata !DIExpression()), !dbg !955
  store double 2.000000e+00, double* %g, align 8, !dbg !957, !tbaa !958
  call void @llvm.dbg.value(metadata i32 0, metadata !948, metadata !DIExpression()), !dbg !962
  call void @llvm.dbg.value(metadata i32 1000, metadata !950, metadata !DIExpression()), !dbg !962
  call void @llvm.dbg.value(metadata i32 0, metadata !951, metadata !DIExpression()), !dbg !962
  call void @llvm.dbg.value(metadata i32 1000, metadata !952, metadata !DIExpression()), !dbg !962
  br label %pfor.cond, !dbg !963

pfor.cond:                                        ; preds = %pfor.inc, %entry
  %__begin.0 = phi i32 [ 0, %entry ], [ %inc3, %pfor.inc ], !dbg !962
  call void @llvm.dbg.value(metadata i32 %__begin.0, metadata !951, metadata !DIExpression()), !dbg !962
  detach within %syncreg, label %pfor.body.entry, label %pfor.inc, !dbg !964

pfor.body.entry:                                  ; preds = %pfor.cond
  call void @llvm.dbg.value(metadata !DIArgList(i32 0, i32 %__begin.0), metadata !953, metadata !DIExpression(DW_OP_LLVM_arg, 0, DW_OP_LLVM_arg, 1, DW_OP_plus, DW_OP_stack_value)), !dbg !965
  %g.0.g.0.g.0. = load double, double* %g, align 8, !dbg !966, !tbaa !958
  call void @llvm.dbg.value(metadata double %g.0.g.0.g.0., metadata !947, metadata !DIExpression()), !dbg !955
  %inc = fadd double %g.0.g.0.g.0., 1.000000e+00, !dbg !966
  call void @llvm.dbg.value(metadata double %inc, metadata !947, metadata !DIExpression()), !dbg !955
  store double %inc, double* %g, align 8, !dbg !966, !tbaa !958
  reattach within %syncreg, label %pfor.inc, !dbg !968

pfor.inc:                                         ; preds = %pfor.body.entry, %pfor.cond
  %inc3 = add nuw nsw i32 %__begin.0, 1, !dbg !969
  call void @llvm.dbg.value(metadata i32 %inc3, metadata !951, metadata !DIExpression()), !dbg !962
  %exitcond.not = icmp eq i32 %inc3, 1000, !dbg !970
  br i1 %exitcond.not, label %pfor.cond.cleanup, label %pfor.cond, !dbg !971, !llvm.loop !972

pfor.cond.cleanup:                                ; preds = %pfor.inc
  sync within %syncreg, label %sync.continue, !dbg !971

sync.continue:                                    ; preds = %pfor.cond.cleanup
  call void @llvm.lifetime.end.p0i8(i64 8, i8* nonnull %g.0.g.0.g.0..sroa_cast), !dbg !975
  ret void, !dbg !975
}

; Function Attrs: argmemonly mustprogress nofree nosync nounwind willreturn
declare void @llvm.lifetime.start.p0i8(i64 immarg, i8* nocapture) #4

; Function Attrs: mustprogress nofree nosync nounwind readnone speculatable willreturn
declare void @llvm.dbg.declare(metadata, metadata, metadata) #5

; Function Attrs: argmemonly mustprogress nounwind willreturn
declare token @llvm.syncregion.start() #6

; Function Attrs: argmemonly mustprogress nofree nosync nounwind willreturn
declare void @llvm.lifetime.end.p0i8(i64 immarg, i8* nocapture) #4

; Function Attrs: argmemonly nounwind uwtable
define dso_local void @_Z12sample_qsortPiS_(i32* noundef %begin, i32* noundef %end) local_unnamed_addr #7 !dbg !976 {
entry:
  %syncreg = tail call token @llvm.syncregion.start(), !dbg !986
  call void @llvm.dbg.value(metadata i32* %begin, metadata !981, metadata !DIExpression()), !dbg !987
  call void @llvm.dbg.value(metadata i32* %end, metadata !982, metadata !DIExpression()), !dbg !987
  %cmp.not23 = icmp eq i32* %begin, %end, !dbg !988
  br i1 %cmp.not23, label %if.end, label %if.then.lr.ph, !dbg !989

if.then.lr.ph:                                    ; preds = %entry
  %incdec.ptr = getelementptr inbounds i32, i32* %end, i64 -1
  br label %if.then, !dbg !989

if.then:                                          ; preds = %if.then.lr.ph, %det.cont
  %begin.tr24 = phi i32* [ %begin, %if.then.lr.ph ], [ %incdec.ptr2, %det.cont ]
  call void @llvm.dbg.value(metadata i32* %begin.tr24, metadata !981, metadata !DIExpression()), !dbg !987
  call void @llvm.dbg.value(metadata i32* %incdec.ptr, metadata !982, metadata !DIExpression()), !dbg !987
  call void @llvm.dbg.value(metadata %"struct.std::less"* undef, metadata !990, metadata !DIExpression()), !dbg !997
  call void @llvm.dbg.value(metadata i32* %incdec.ptr, metadata !995, metadata !DIExpression()), !dbg !997
  %0 = load i32, i32* %incdec.ptr, align 4, !dbg !999, !tbaa !1000
  call void @llvm.dbg.value(metadata i32 %0, metadata !1002, metadata !DIExpression(DW_OP_LLVM_convert, 32, DW_ATE_unsigned, DW_OP_LLVM_convert, 64, DW_ATE_unsigned, DW_OP_constu, 32, DW_OP_shl, DW_OP_stack_value)), !dbg !1013
  call void @llvm.dbg.value(metadata i32* %begin.tr24, metadata !1008, metadata !DIExpression()), !dbg !1013
  call void @llvm.dbg.value(metadata i32* %incdec.ptr, metadata !1009, metadata !DIExpression()), !dbg !1013
  call void @llvm.dbg.value(metadata i32* %begin.tr24, metadata !1015, metadata !DIExpression()), !dbg !1033
  call void @llvm.dbg.value(metadata i32* %incdec.ptr, metadata !1028, metadata !DIExpression()), !dbg !1033
  call void @llvm.dbg.declare(metadata %"class.std::binder2nd"* undef, metadata !1029, metadata !DIExpression()), !dbg !1035
  call void @llvm.dbg.declare(metadata %"struct.std::bidirectional_iterator_tag"* undef, metadata !1030, metadata !DIExpression()), !dbg !1036
  %cmp4043.i.i = icmp eq i32* %incdec.ptr, %begin.tr24, !dbg !1037
  br i1 %cmp4043.i.i, label %_ZSt9partitionIPiSt9binder2ndISt4lessIiEEET_S5_S5_T0_.exit, label %if.else.lr.ph.i.i, !dbg !1040

if.else.lr.ph.i.i:                                ; preds = %if.then, %while.end18.i.i
  %1 = phi i32 [ %2, %while.end18.i.i ], [ %0, %if.then ]
  %__last.addr.045.i.i = phi i32* [ %__last.addr.1.i.i, %while.end18.i.i ], [ %incdec.ptr, %if.then ]
  %__first.addr.044.i.i = phi i32* [ %incdec.ptr19.i.i, %while.end18.i.i ], [ %begin.tr24, %if.then ]
  call void @llvm.dbg.value(metadata i32* %__last.addr.045.i.i, metadata !1028, metadata !DIExpression()), !dbg !1033
  call void @llvm.dbg.value(metadata i32* %__first.addr.044.i.i, metadata !1015, metadata !DIExpression()), !dbg !1033
  br label %if.else.i.i, !dbg !1040

if.else.i.i:                                      ; preds = %if.then3.i.i, %if.else.lr.ph.i.i
  %__first.addr.141.i.i = phi i32* [ %__first.addr.044.i.i, %if.else.lr.ph.i.i ], [ %incdec.ptr.i.i, %if.then3.i.i ]
  call void @llvm.dbg.value(metadata i32* %__first.addr.141.i.i, metadata !1015, metadata !DIExpression()), !dbg !1033
  call void @llvm.dbg.value(metadata %"class.std::binder2nd"* undef, metadata !1041, metadata !DIExpression()), !dbg !1046
  call void @llvm.dbg.value(metadata i32* %__first.addr.141.i.i, metadata !1044, metadata !DIExpression()), !dbg !1046
  call void @llvm.dbg.value(metadata %"class.std::binder2nd"* undef, metadata !1049, metadata !DIExpression()), !dbg !1055
  call void @llvm.dbg.value(metadata i32* %__first.addr.141.i.i, metadata !1052, metadata !DIExpression()), !dbg !1055
  call void @llvm.dbg.value(metadata i32* undef, metadata !1053, metadata !DIExpression()), !dbg !1055
  %2 = load i32, i32* %__first.addr.141.i.i, align 4, !dbg !1057, !tbaa !1000
  %cmp.i.i.i.i = icmp slt i32 %2, %0, !dbg !1058
  br i1 %cmp.i.i.i.i, label %if.then3.i.i, label %while.body8.i.i, !dbg !1059

if.then3.i.i:                                     ; preds = %if.else.i.i
  %incdec.ptr.i.i = getelementptr inbounds i32, i32* %__first.addr.141.i.i, i64 1, !dbg !1060
  call void @llvm.dbg.value(metadata i32* %incdec.ptr.i.i, metadata !1015, metadata !DIExpression()), !dbg !1033
  %cmp.i.i = icmp eq i32* %incdec.ptr.i.i, %__last.addr.045.i.i, !dbg !1037
  br i1 %cmp.i.i, label %_ZSt9partitionIPiSt9binder2ndISt4lessIiEEET_S5_S5_T0_.exit, label %if.else.i.i, !dbg !1040, !llvm.loop !1061

while.body8.i.i:                                  ; preds = %if.else.i.i, %if.else11.i.i
  %__last.addr.0.pn.i.i = phi i32* [ %__last.addr.1.i.i, %if.else11.i.i ], [ %__last.addr.045.i.i, %if.else.i.i ]
  %__last.addr.1.i.i = getelementptr inbounds i32, i32* %__last.addr.0.pn.i.i, i64 -1, !dbg !1065
  call void @llvm.dbg.value(metadata i32* %__last.addr.1.i.i, metadata !1028, metadata !DIExpression()), !dbg !1033
  %cmp9.i.i = icmp eq i32* %__first.addr.141.i.i, %__last.addr.1.i.i, !dbg !1066
  br i1 %cmp9.i.i, label %_ZSt9partitionIPiSt9binder2ndISt4lessIiEEET_S5_S5_T0_.exit, label %if.else11.i.i, !dbg !1068

if.else11.i.i:                                    ; preds = %while.body8.i.i
  call void @llvm.dbg.value(metadata %"class.std::binder2nd"* undef, metadata !1041, metadata !DIExpression()), !dbg !1069
  call void @llvm.dbg.value(metadata i32* %__last.addr.1.i.i, metadata !1044, metadata !DIExpression()), !dbg !1069
  call void @llvm.dbg.value(metadata %"class.std::binder2nd"* undef, metadata !1049, metadata !DIExpression()), !dbg !1072
  call void @llvm.dbg.value(metadata i32* %__last.addr.1.i.i, metadata !1052, metadata !DIExpression()), !dbg !1072
  call void @llvm.dbg.value(metadata i32* undef, metadata !1053, metadata !DIExpression()), !dbg !1072
  %3 = load i32, i32* %__last.addr.1.i.i, align 4, !dbg !1074, !tbaa !1000
  %cmp.i.i33.i.i = icmp slt i32 %3, %0, !dbg !1075
  br i1 %cmp.i.i33.i.i, label %while.end18.i.i, label %while.body8.i.i, !dbg !1076, !llvm.loop !1077

while.end18.i.i:                                  ; preds = %if.else11.i.i
  call void @llvm.dbg.value(metadata i32* %__first.addr.141.i.i, metadata !1080, metadata !DIExpression()), !dbg !1089
  call void @llvm.dbg.value(metadata i32* %__last.addr.1.i.i, metadata !1084, metadata !DIExpression()), !dbg !1089
  call void @llvm.dbg.value(metadata i32* %__first.addr.141.i.i, metadata !1091, metadata !DIExpression()), !dbg !1106
  call void @llvm.dbg.value(metadata i32* %__last.addr.1.i.i, metadata !1104, metadata !DIExpression()), !dbg !1106
  call void @llvm.dbg.value(metadata i32 %2, metadata !1105, metadata !DIExpression()), !dbg !1106
  store i32 %3, i32* %__first.addr.141.i.i, align 4, !dbg !1108, !tbaa !1000
  store i32 %2, i32* %__last.addr.1.i.i, align 4, !dbg !1109, !tbaa !1000
  %incdec.ptr19.i.i = getelementptr inbounds i32, i32* %__first.addr.141.i.i, i64 1, !dbg !1110
  call void @llvm.dbg.value(metadata i32* %__last.addr.1.i.i, metadata !1028, metadata !DIExpression()), !dbg !1033
  call void @llvm.dbg.value(metadata i32* %incdec.ptr19.i.i, metadata !1015, metadata !DIExpression()), !dbg !1033
  %cmp40.i.i = icmp eq i32* %incdec.ptr19.i.i, %__last.addr.1.i.i, !dbg !1037
  br i1 %cmp40.i.i, label %_ZSt9partitionIPiSt9binder2ndISt4lessIiEEET_S5_S5_T0_.exit, label %if.else.lr.ph.i.i, !dbg !1040, !llvm.loop !1111

_ZSt9partitionIPiSt9binder2ndISt4lessIiEEET_S5_S5_T0_.exit: ; preds = %while.end18.i.i, %if.then3.i.i, %while.body8.i.i, %if.then
  %4 = phi i32 [ %0, %if.then ], [ %2, %while.body8.i.i ], [ %1, %if.then3.i.i ], [ %2, %while.end18.i.i ], !dbg !1114
  %__first.addr.137.i.i = phi i32* [ %incdec.ptr, %if.then ], [ %__first.addr.141.i.i, %while.body8.i.i ], [ %__last.addr.045.i.i, %if.then3.i.i ], [ %__last.addr.1.i.i, %while.end18.i.i ]
  call void @llvm.dbg.value(metadata i32* %__first.addr.137.i.i, metadata !983, metadata !DIExpression()), !dbg !986
  call void @llvm.dbg.value(metadata i32* %incdec.ptr, metadata !1091, metadata !DIExpression()), !dbg !1116
  call void @llvm.dbg.value(metadata i32* %__first.addr.137.i.i, metadata !1104, metadata !DIExpression()), !dbg !1116
  %5 = load i32, i32* %incdec.ptr, align 4, !dbg !1117, !tbaa !1000
  call void @llvm.dbg.value(metadata i32 %5, metadata !1105, metadata !DIExpression()), !dbg !1116
  store i32 %4, i32* %incdec.ptr, align 4, !dbg !1118, !tbaa !1000
  store i32 %5, i32* %__first.addr.137.i.i, align 4, !dbg !1119, !tbaa !1000
  detach within %syncreg, label %det.achd, label %det.cont, !dbg !1120

det.achd:                                         ; preds = %_ZSt9partitionIPiSt9binder2ndISt4lessIiEEET_S5_S5_T0_.exit
  tail call void @_Z12sample_qsortPiS_(i32* noundef %begin.tr24, i32* noundef nonnull %__first.addr.137.i.i), !dbg !1120
  reattach within %syncreg, label %det.cont, !dbg !1120

det.cont:                                         ; preds = %det.achd, %_ZSt9partitionIPiSt9binder2ndISt4lessIiEEET_S5_S5_T0_.exit
  %incdec.ptr2 = getelementptr inbounds i32, i32* %__first.addr.137.i.i, i64 1, !dbg !1121
  call void @llvm.dbg.value(metadata i32* %incdec.ptr2, metadata !983, metadata !DIExpression()), !dbg !986
  call void @llvm.dbg.value(metadata i32* %incdec.ptr2, metadata !981, metadata !DIExpression()), !dbg !987
  call void @llvm.dbg.value(metadata i32* %end, metadata !982, metadata !DIExpression()), !dbg !987
  %cmp.not = icmp eq i32* %incdec.ptr2, %end, !dbg !988
  br i1 %cmp.not, label %if.end, label %if.then, !dbg !989

if.end:                                           ; preds = %det.cont, %entry
  sync within %syncreg, label %if.end.split, !dbg !1122

if.end.split:                                     ; preds = %if.end
  ret void, !dbg !1122
}

; Function Attrs: argmemonly mustprogress nofree norecurse nosync nounwind readonly uwtable willreturn
define dso_local noundef i64 @_Z6todvalP7timeval(%struct.timeval* nocapture noundef readonly %tp) local_unnamed_addr #8 !dbg !1123 {
entry:
  call void @llvm.dbg.value(metadata %struct.timeval* %tp, metadata !1135, metadata !DIExpression()), !dbg !1136
  %tv_sec = getelementptr inbounds %struct.timeval, %struct.timeval* %tp, i64 0, i32 0, !dbg !1137
  %0 = load i64, i64* %tv_sec, align 8, !dbg !1137, !tbaa !1138
  %mul1 = mul i64 %0, 1000000, !dbg !1141
  %tv_usec = getelementptr inbounds %struct.timeval, %struct.timeval* %tp, i64 0, i32 1, !dbg !1142
  %1 = load i64, i64* %tv_usec, align 8, !dbg !1142, !tbaa !1143
  %add = add nsw i64 %mul1, %1, !dbg !1144
  ret i64 %add, !dbg !1145
}

; Function Attrs: mustprogress uwtable
define dso_local noundef i32 @_Z5qmainii(i32 noundef %n, i32 noundef %round) local_unnamed_addr #9 !dbg !1146 {
entry:
  %t1 = alloca %struct.timeval, align 8
  %t2 = alloca %struct.timeval, align 8
  call void @llvm.dbg.value(metadata i32 %n, metadata !1150, metadata !DIExpression()), !dbg !1164
  call void @llvm.dbg.value(metadata i32 %round, metadata !1151, metadata !DIExpression()), !dbg !1164
  %conv = sext i32 %n to i64, !dbg !1165
  %0 = tail call { i64, i1 } @llvm.umul.with.overflow.i64(i64 %conv, i64 4), !dbg !1166
  %1 = extractvalue { i64, i1 } %0, 1, !dbg !1166
  %2 = extractvalue { i64, i1 } %0, 0, !dbg !1166
  %3 = select i1 %1, i64 -1, i64 %2, !dbg !1166
  %call = tail call noalias noundef nonnull i8* @_Znam(i64 noundef %3) #18, !dbg !1166, !heapallocsite !11
  %4 = bitcast i8* %call to i32*, !dbg !1166
  call void @llvm.dbg.value(metadata i32* %4, metadata !1152, metadata !DIExpression()), !dbg !1164
  call void @llvm.dbg.value(metadata i32 0, metadata !1153, metadata !DIExpression()), !dbg !1167
  %cmp186 = icmp sgt i32 %round, 0, !dbg !1168
  br i1 %cmp186, label %for.cond1.preheader.lr.ph, label %delete.notnull61, !dbg !1169

for.cond1.preheader.lr.ph:                        ; preds = %entry
  %cmp2184 = icmp sgt i32 %n, 0
  %add.ptr = getelementptr inbounds i32, i32* %4, i64 %conv
  %cmp.not.i = icmp eq i32* %add.ptr, %4
  %cmp1.not18.i = icmp eq i32 %n, 1
  %or.cond179 = or i1 %cmp1.not18.i, %cmp.not.i
  %__i.017.i = getelementptr inbounds i32, i32* %4, i64 1
  %sub.ptr.rhs.cast.i = ptrtoint i8* %call to i64
  %5 = bitcast %struct.timeval* %t1 to i8*
  %6 = bitcast %struct.timeval* %t2 to i8*
  %tv_sec.i = getelementptr inbounds %struct.timeval, %struct.timeval* %t2, i64 0, i32 0
  %tv_usec.i = getelementptr inbounds %struct.timeval, %struct.timeval* %t2, i64 0, i32 1
  %tv_sec.i107 = getelementptr inbounds %struct.timeval, %struct.timeval* %t1, i64 0, i32 0
  %tv_usec.i109 = getelementptr inbounds %struct.timeval, %struct.timeval* %t1, i64 0, i32 1
  %sub22 = add i32 %n, -1
  %smax = call i32 @llvm.smax.i32(i32 %sub22, i32 0), !dbg !1169
  %wide.trip.count = zext i32 %n to i64
  %wide.trip.count193 = zext i32 %smax to i64
  %7 = and i64 %wide.trip.count, 4294967288, !dbg !1169
  %8 = add nsw i64 %7, -8, !dbg !1169
  %9 = lshr exact i64 %8, 3, !dbg !1169
  %10 = add nuw nsw i64 %9, 1, !dbg !1169
  %min.iters.check = icmp ult i32 %n, 8
  %n.vec = and i64 %wide.trip.count, 4294967288
  %xtraiter = and i64 %10, 3
  %11 = icmp ult i64 %8, 24
  %unroll_iter = and i64 %10, 4611686018427387900
  %lcmp.mod.not = icmp eq i64 %xtraiter, 0
  %cmp.n = icmp eq i64 %n.vec, %wide.trip.count
  br label %for.cond1.preheader, !dbg !1169

for.cond1.preheader:                              ; preds = %for.cond1.preheader.lr.ph, %for.inc55
  %r.0187 = phi i32 [ 0, %for.cond1.preheader.lr.ph ], [ %inc56, %for.inc55 ]
  call void @llvm.dbg.value(metadata i32 %r.0187, metadata !1153, metadata !DIExpression()), !dbg !1167
  call void @llvm.dbg.value(metadata i32 0, metadata !1155, metadata !DIExpression()), !dbg !1170
  br i1 %cmp2184, label %for.body4.preheader, label %for.cond.cleanup3, !dbg !1171

for.body4.preheader:                              ; preds = %for.cond1.preheader
  br i1 %min.iters.check, label %for.body4.preheader204, label %vector.ph, !dbg !1171

vector.ph:                                        ; preds = %for.body4.preheader
  br i1 %11, label %middle.block.unr-lcssa, label %vector.body, !dbg !1171

vector.body:                                      ; preds = %vector.ph, %vector.body
  %index = phi i64 [ %index.next.3, %vector.body ], [ 0, %vector.ph ], !dbg !1172
  %vec.ind200 = phi <4 x i32> [ %vec.ind.next203.3, %vector.body ], [ <i32 0, i32 1, i32 2, i32 3>, %vector.ph ], !dbg !1174
  %niter = phi i64 [ %niter.next.3, %vector.body ], [ 0, %vector.ph ]
  %step.add201 = add <4 x i32> %vec.ind200, <i32 4, i32 4, i32 4, i32 4>, !dbg !1174
  %12 = getelementptr inbounds i32, i32* %4, i64 %index, !dbg !1172
  %13 = bitcast i32* %12 to <4 x i32>*, !dbg !1174
  store <4 x i32> %vec.ind200, <4 x i32>* %13, align 4, !dbg !1174, !tbaa !1000
  %14 = getelementptr inbounds i32, i32* %12, i64 4, !dbg !1174
  %15 = bitcast i32* %14 to <4 x i32>*, !dbg !1174
  store <4 x i32> %step.add201, <4 x i32>* %15, align 4, !dbg !1174, !tbaa !1000
  %index.next = or i64 %index, 8, !dbg !1172
  %vec.ind.next203 = add <4 x i32> %vec.ind200, <i32 8, i32 8, i32 8, i32 8>, !dbg !1174
  %step.add201.1 = add <4 x i32> %vec.ind200, <i32 12, i32 12, i32 12, i32 12>, !dbg !1174
  %16 = getelementptr inbounds i32, i32* %4, i64 %index.next, !dbg !1172
  %17 = bitcast i32* %16 to <4 x i32>*, !dbg !1174
  store <4 x i32> %vec.ind.next203, <4 x i32>* %17, align 4, !dbg !1174, !tbaa !1000
  %18 = getelementptr inbounds i32, i32* %16, i64 4, !dbg !1174
  %19 = bitcast i32* %18 to <4 x i32>*, !dbg !1174
  store <4 x i32> %step.add201.1, <4 x i32>* %19, align 4, !dbg !1174, !tbaa !1000
  %index.next.1 = or i64 %index, 16, !dbg !1172
  %vec.ind.next203.1 = add <4 x i32> %vec.ind200, <i32 16, i32 16, i32 16, i32 16>, !dbg !1174
  %step.add201.2 = add <4 x i32> %vec.ind200, <i32 20, i32 20, i32 20, i32 20>, !dbg !1174
  %20 = getelementptr inbounds i32, i32* %4, i64 %index.next.1, !dbg !1172
  %21 = bitcast i32* %20 to <4 x i32>*, !dbg !1174
  store <4 x i32> %vec.ind.next203.1, <4 x i32>* %21, align 4, !dbg !1174, !tbaa !1000
  %22 = getelementptr inbounds i32, i32* %20, i64 4, !dbg !1174
  %23 = bitcast i32* %22 to <4 x i32>*, !dbg !1174
  store <4 x i32> %step.add201.2, <4 x i32>* %23, align 4, !dbg !1174, !tbaa !1000
  %index.next.2 = or i64 %index, 24, !dbg !1172
  %vec.ind.next203.2 = add <4 x i32> %vec.ind200, <i32 24, i32 24, i32 24, i32 24>, !dbg !1174
  %step.add201.3 = add <4 x i32> %vec.ind200, <i32 28, i32 28, i32 28, i32 28>, !dbg !1174
  %24 = getelementptr inbounds i32, i32* %4, i64 %index.next.2, !dbg !1172
  %25 = bitcast i32* %24 to <4 x i32>*, !dbg !1174
  store <4 x i32> %vec.ind.next203.2, <4 x i32>* %25, align 4, !dbg !1174, !tbaa !1000
  %26 = getelementptr inbounds i32, i32* %24, i64 4, !dbg !1174
  %27 = bitcast i32* %26 to <4 x i32>*, !dbg !1174
  store <4 x i32> %step.add201.3, <4 x i32>* %27, align 4, !dbg !1174, !tbaa !1000
  %index.next.3 = add nuw i64 %index, 32, !dbg !1172
  %vec.ind.next203.3 = add <4 x i32> %vec.ind200, <i32 32, i32 32, i32 32, i32 32>, !dbg !1174
  %niter.next.3 = add i64 %niter, 4, !dbg !1172
  %niter.ncmp.3 = icmp eq i64 %niter.next.3, %unroll_iter, !dbg !1172
  br i1 %niter.ncmp.3, label %middle.block.unr-lcssa, label %vector.body, !dbg !1172, !llvm.loop !1175

middle.block.unr-lcssa:                           ; preds = %vector.body, %vector.ph
  %index.unr = phi i64 [ 0, %vector.ph ], [ %index.next.3, %vector.body ]
  %vec.ind200.unr = phi <4 x i32> [ <i32 0, i32 1, i32 2, i32 3>, %vector.ph ], [ %vec.ind.next203.3, %vector.body ]
  br i1 %lcmp.mod.not, label %middle.block, label %vector.body.epil, !dbg !1172

vector.body.epil:                                 ; preds = %middle.block.unr-lcssa, %vector.body.epil
  %index.epil = phi i64 [ %index.next.epil, %vector.body.epil ], [ %index.unr, %middle.block.unr-lcssa ], !dbg !1172
  %vec.ind200.epil = phi <4 x i32> [ %vec.ind.next203.epil, %vector.body.epil ], [ %vec.ind200.unr, %middle.block.unr-lcssa ], !dbg !1174
  %epil.iter = phi i64 [ %epil.iter.next, %vector.body.epil ], [ 0, %middle.block.unr-lcssa ]
  %step.add201.epil = add <4 x i32> %vec.ind200.epil, <i32 4, i32 4, i32 4, i32 4>, !dbg !1174
  %28 = getelementptr inbounds i32, i32* %4, i64 %index.epil, !dbg !1172
  %29 = bitcast i32* %28 to <4 x i32>*, !dbg !1174
  store <4 x i32> %vec.ind200.epil, <4 x i32>* %29, align 4, !dbg !1174, !tbaa !1000
  %30 = getelementptr inbounds i32, i32* %28, i64 4, !dbg !1174
  %31 = bitcast i32* %30 to <4 x i32>*, !dbg !1174
  store <4 x i32> %step.add201.epil, <4 x i32>* %31, align 4, !dbg !1174, !tbaa !1000
  %index.next.epil = add nuw i64 %index.epil, 8, !dbg !1172
  %vec.ind.next203.epil = add <4 x i32> %vec.ind200.epil, <i32 8, i32 8, i32 8, i32 8>, !dbg !1174
  %epil.iter.next = add i64 %epil.iter, 1, !dbg !1172
  %epil.iter.cmp.not = icmp eq i64 %epil.iter.next, %xtraiter, !dbg !1172
  br i1 %epil.iter.cmp.not, label %middle.block, label %vector.body.epil, !dbg !1172, !llvm.loop !1178

middle.block:                                     ; preds = %vector.body.epil, %middle.block.unr-lcssa
  br i1 %cmp.n, label %for.cond.cleanup3, label %for.body4.preheader204, !dbg !1171

for.body4.preheader204:                           ; preds = %for.body4.preheader, %middle.block
  %indvars.iv.ph = phi i64 [ 0, %for.body4.preheader ], [ %n.vec, %middle.block ]
  br label %for.body4, !dbg !1171

for.cond.cleanup3:                                ; preds = %for.body4, %middle.block, %for.cond1.preheader
  call void @llvm.dbg.value(metadata i32* %4, metadata !1180, metadata !DIExpression()) #19, !dbg !1192
  call void @llvm.dbg.value(metadata i32* %add.ptr, metadata !1183, metadata !DIExpression()) #19, !dbg !1192
  call void @llvm.dbg.value(metadata i32* %4, metadata !1184, metadata !DIExpression(DW_OP_plus_uconst, 4, DW_OP_stack_value)) #19, !dbg !1194
  br i1 %or.cond179, label %_ZSt14random_shuffleIPiEvT_S1_.exit, label %for.body.i, !dbg !1195

for.body.i:                                       ; preds = %for.cond.cleanup3, %if.end.i
  %__i.019.i = phi i32* [ %__i.0.i, %if.end.i ], [ %__i.017.i, %for.cond.cleanup3 ]
  %call.i = tail call i32 @rand() #19, !dbg !1196
  %conv.i = sext i32 %call.i to i64, !dbg !1196
  %sub.ptr.lhs.cast.i = ptrtoint i32* %__i.019.i to i64, !dbg !1197
  %sub.ptr.sub.i = sub i64 %sub.ptr.lhs.cast.i, %sub.ptr.rhs.cast.i, !dbg !1197
  %sub.ptr.div.i = ashr exact i64 %sub.ptr.sub.i, 2, !dbg !1197
  %add.i = add nsw i64 %sub.ptr.div.i, 1, !dbg !1198
  %rem.i = srem i64 %conv.i, %add.i, !dbg !1199
  %add.ptr2.i = getelementptr inbounds i32, i32* %4, i64 %rem.i, !dbg !1200
  call void @llvm.dbg.value(metadata i32* %add.ptr2.i, metadata !1187, metadata !DIExpression()) #19, !dbg !1201
  %cmp3.not.i = icmp eq i32* %__i.019.i, %add.ptr2.i, !dbg !1202
  br i1 %cmp3.not.i, label %if.end.i, label %if.then4.i, !dbg !1204

if.then4.i:                                       ; preds = %for.body.i
  call void @llvm.dbg.value(metadata i32* %__i.019.i, metadata !1080, metadata !DIExpression()) #19, !dbg !1205
  call void @llvm.dbg.value(metadata i32* %add.ptr2.i, metadata !1084, metadata !DIExpression()) #19, !dbg !1205
  call void @llvm.dbg.value(metadata i32* %__i.019.i, metadata !1091, metadata !DIExpression()) #19, !dbg !1207
  call void @llvm.dbg.value(metadata i32* %add.ptr2.i, metadata !1104, metadata !DIExpression()) #19, !dbg !1207
  %32 = load i32, i32* %__i.019.i, align 4, !dbg !1209, !tbaa !1000
  call void @llvm.dbg.value(metadata i32 %32, metadata !1105, metadata !DIExpression()) #19, !dbg !1207
  %33 = load i32, i32* %add.ptr2.i, align 4, !dbg !1210, !tbaa !1000
  store i32 %33, i32* %__i.019.i, align 4, !dbg !1211, !tbaa !1000
  store i32 %32, i32* %add.ptr2.i, align 4, !dbg !1212, !tbaa !1000
  br label %if.end.i, !dbg !1213

if.end.i:                                         ; preds = %if.then4.i, %for.body.i
  call void @llvm.dbg.value(metadata i32* %__i.019.i, metadata !1184, metadata !DIExpression(DW_OP_plus_uconst, 4, DW_OP_stack_value)) #19, !dbg !1194
  %__i.0.i = getelementptr inbounds i32, i32* %__i.019.i, i64 1, !dbg !1194
  call void @llvm.dbg.value(metadata i32* %__i.0.i, metadata !1184, metadata !DIExpression()) #19, !dbg !1194
  %cmp1.not.i = icmp eq i32* %__i.0.i, %add.ptr, !dbg !1214
  br i1 %cmp1.not.i, label %_ZSt14random_shuffleIPiEvT_S1_.exit, label %for.body.i, !dbg !1215, !llvm.loop !1216

_ZSt14random_shuffleIPiEvT_S1_.exit:              ; preds = %if.end.i, %for.cond.cleanup3
  call void @llvm.dbg.value(metadata %"class.std::basic_ostream"* @_ZSt4cerr, metadata !1218, metadata !DIExpression()), !dbg !1283
  call void @llvm.dbg.value(metadata i8* getelementptr inbounds ([9 x i8], [9 x i8]* @.str, i64 0, i64 0), metadata !1227, metadata !DIExpression()), !dbg !1283
  %call1.i = tail call noundef nonnull align 8 dereferenceable(8) %"class.std::basic_ostream"* @_ZSt16__ostream_insertIcSt11char_traitsIcEERSt13basic_ostreamIT_T0_ES6_PKS3_l(%"class.std::basic_ostream"* noundef nonnull align 8 dereferenceable(8) @_ZSt4cerr, i8* noundef nonnull getelementptr inbounds ([9 x i8], [9 x i8]* @.str, i64 0, i64 0), i64 noundef 8), !dbg !1285
  %call6 = tail call noundef nonnull align 8 dereferenceable(8) %"class.std::basic_ostream"* @_ZNSolsEi(%"class.std::basic_ostream"* noundef nonnull align 8 dereferenceable(8) @_ZSt4cerr, i32 noundef %n), !dbg !1287
  call void @llvm.dbg.value(metadata %"class.std::basic_ostream"* %call6, metadata !1218, metadata !DIExpression()), !dbg !1288
  call void @llvm.dbg.value(metadata i8* getelementptr inbounds ([10 x i8], [10 x i8]* @.str.1, i64 0, i64 0), metadata !1227, metadata !DIExpression()), !dbg !1288
  %call1.i103 = tail call noundef nonnull align 8 dereferenceable(8) %"class.std::basic_ostream"* @_ZSt16__ostream_insertIcSt11char_traitsIcEERSt13basic_ostreamIT_T0_ES6_PKS3_l(%"class.std::basic_ostream"* noundef nonnull align 8 dereferenceable(8) %call6, i8* noundef nonnull getelementptr inbounds ([10 x i8], [10 x i8]* @.str.1, i64 0, i64 0), i64 noundef 9), !dbg !1290
  call void @llvm.dbg.value(metadata %"class.std::basic_ostream"* %call6, metadata !1291, metadata !DIExpression()), !dbg !1305
  call void @llvm.dbg.value(metadata %"class.std::basic_ostream"* %call6, metadata !1307, metadata !DIExpression()), !dbg !1313
  %34 = bitcast %"class.std::basic_ostream"* %call6 to i8**, !dbg !1315
  %vtable.i = load i8*, i8** %34, align 8, !dbg !1315, !tbaa !1316
  %vbase.offset.ptr.i = getelementptr i8, i8* %vtable.i, i64 -24, !dbg !1315
  %35 = bitcast i8* %vbase.offset.ptr.i to i64*, !dbg !1315
  %vbase.offset.i = load i64, i64* %35, align 8, !dbg !1315
  %add.ptr.i = getelementptr inbounds %"class.std::basic_ostream", %"class.std::basic_ostream"* %call6, i64 0, i32 1, i32 4, !dbg !1315
  %36 = bitcast %"class.std::basic_streambuf"** %add.ptr.i to i8*, !dbg !1315
  call void @llvm.dbg.value(metadata i8* %36, metadata !1318, metadata !DIExpression()), !dbg !1332
  call void @llvm.dbg.value(metadata i8 10, metadata !1330, metadata !DIExpression()), !dbg !1332
  %_M_ctype.i.i = getelementptr inbounds i8, i8* %36, i64 %vbase.offset.i, !dbg !1334
  %37 = bitcast i8* %_M_ctype.i.i to %"class.std::ctype"**, !dbg !1334
  %38 = load %"class.std::ctype"*, %"class.std::ctype"** %37, align 8, !dbg !1334, !tbaa !1335
  call void @llvm.dbg.value(metadata %"class.std::ctype"* %38, metadata !1339, metadata !DIExpression()), !dbg !1351
  %tobool.not.i.i.i = icmp eq %"class.std::ctype"* %38, null, !dbg !1353
  br i1 %tobool.not.i.i.i, label %if.then.i.i.i, label %_ZSt13__check_facetISt5ctypeIcEERKT_PS3_.exit.i.i, !dbg !1355

if.then.i.i.i:                                    ; preds = %_ZSt14random_shuffleIPiEvT_S1_.exit
  tail call void @_ZSt16__throw_bad_castv() #20, !dbg !1356
  unreachable, !dbg !1356

_ZSt13__check_facetISt5ctypeIcEERKT_PS3_.exit.i.i: ; preds = %_ZSt14random_shuffleIPiEvT_S1_.exit
  call void @llvm.dbg.value(metadata %"class.std::ctype"* %38, metadata !1357, metadata !DIExpression()), !dbg !1366
  call void @llvm.dbg.value(metadata i8 10, metadata !1365, metadata !DIExpression()), !dbg !1366
  %_M_widen_ok.i.i.i = getelementptr inbounds %"class.std::ctype", %"class.std::ctype"* %38, i64 0, i32 8, !dbg !1368
  %39 = load i8, i8* %_M_widen_ok.i.i.i, align 8, !dbg !1368, !tbaa !1370
  %tobool.not.i3.i.i = icmp eq i8 %39, 0, !dbg !1368
  br i1 %tobool.not.i3.i.i, label %if.end.i.i.i, label %if.then.i4.i.i, !dbg !1372

if.then.i4.i.i:                                   ; preds = %_ZSt13__check_facetISt5ctypeIcEERKT_PS3_.exit.i.i
  %arrayidx.i.i.i = getelementptr inbounds %"class.std::ctype", %"class.std::ctype"* %38, i64 0, i32 9, i64 10, !dbg !1373
  %40 = load i8, i8* %arrayidx.i.i.i, align 1, !dbg !1373, !tbaa !1374
  br label %_ZSt4endlIcSt11char_traitsIcEERSt13basic_ostreamIT_T0_ES6_.exit, !dbg !1375

if.end.i.i.i:                                     ; preds = %_ZSt13__check_facetISt5ctypeIcEERKT_PS3_.exit.i.i
  tail call void @_ZNKSt5ctypeIcE13_M_widen_initEv(%"class.std::ctype"* noundef nonnull align 8 dereferenceable(570) %38), !dbg !1376
  %41 = bitcast %"class.std::ctype"* %38 to i8 (%"class.std::ctype"*, i8)***, !dbg !1377
  %vtable.i.i.i = load i8 (%"class.std::ctype"*, i8)**, i8 (%"class.std::ctype"*, i8)*** %41, align 8, !dbg !1377, !tbaa !1316
  %vfn.i.i.i = getelementptr inbounds i8 (%"class.std::ctype"*, i8)*, i8 (%"class.std::ctype"*, i8)** %vtable.i.i.i, i64 6, !dbg !1377
  %42 = load i8 (%"class.std::ctype"*, i8)*, i8 (%"class.std::ctype"*, i8)** %vfn.i.i.i, align 8, !dbg !1377
  %call.i.i.i = tail call noundef signext i8 %42(%"class.std::ctype"* noundef nonnull align 8 dereferenceable(570) %38, i8 noundef signext 10), !dbg !1377
  br label %_ZSt4endlIcSt11char_traitsIcEERSt13basic_ostreamIT_T0_ES6_.exit, !dbg !1378

_ZSt4endlIcSt11char_traitsIcEERSt13basic_ostreamIT_T0_ES6_.exit: ; preds = %if.then.i4.i.i, %if.end.i.i.i
  %retval.0.i.i.i = phi i8 [ %40, %if.then.i4.i.i ], [ %call.i.i.i, %if.end.i.i.i ], !dbg !1366
  %call1.i132 = tail call noundef nonnull align 8 dereferenceable(8) %"class.std::basic_ostream"* @_ZNSo3putEc(%"class.std::basic_ostream"* noundef nonnull align 8 dereferenceable(8) %call6, i8 noundef signext %retval.0.i.i.i), !dbg !1379
  call void @llvm.dbg.value(metadata %"class.std::basic_ostream"* %call1.i132, metadata !1380, metadata !DIExpression()), !dbg !1383
  %call.i.i133 = tail call noundef nonnull align 8 dereferenceable(8) %"class.std::basic_ostream"* @_ZNSo5flushEv(%"class.std::basic_ostream"* noundef nonnull align 8 dereferenceable(8) %call1.i132), !dbg !1385
  call void @llvm.lifetime.start.p0i8(i64 16, i8* nonnull %5) #19, !dbg !1386
  call void @llvm.dbg.declare(metadata %struct.timeval* %t1, metadata !1159, metadata !DIExpression()), !dbg !1387
  call void @llvm.lifetime.start.p0i8(i64 16, i8* nonnull %6) #19, !dbg !1386
  call void @llvm.dbg.declare(metadata %struct.timeval* %t2, metadata !1160, metadata !DIExpression()), !dbg !1388
  %call9 = call i32 @gettimeofday(%struct.timeval* noundef nonnull %t1, %struct.timezone* noundef null) #19, !dbg !1389
  tail call void @_Z12sample_qsortPiS_(i32* noundef nonnull %4, i32* noundef nonnull %add.ptr), !dbg !1390
  %call12 = call i32 @gettimeofday(%struct.timeval* noundef nonnull %t2, %struct.timezone* noundef null) #19, !dbg !1391
  call void @llvm.dbg.value(metadata %struct.timeval* %t2, metadata !1135, metadata !DIExpression()), !dbg !1392
  %43 = load i64, i64* %tv_sec.i, align 8, !dbg !1394, !tbaa !1138
  %44 = load i64, i64* %tv_usec.i, align 8, !dbg !1395, !tbaa !1143
  call void @llvm.dbg.value(metadata %struct.timeval* %t1, metadata !1135, metadata !DIExpression()), !dbg !1396
  %45 = load i64, i64* %tv_sec.i107, align 8, !dbg !1398, !tbaa !1138
  %46 = load i64, i64* %tv_usec.i109, align 8, !dbg !1399, !tbaa !1143
  %reass.add = sub i64 %43, %45
  %reass.mul = mul i64 %reass.add, 1000000
  %add.i106 = sub i64 %44, %46, !dbg !1400
  %sub = add i64 %add.i106, %reass.mul, !dbg !1401
  %div = udiv i64 %sub, 1000, !dbg !1402
  call void @llvm.dbg.value(metadata i64 %div, metadata !1161, metadata !DIExpression()), !dbg !1403
  call void @llvm.dbg.value(metadata %"class.std::basic_ostream"* @_ZSt4cout, metadata !1218, metadata !DIExpression()), !dbg !1404
  call void @llvm.dbg.value(metadata i8* getelementptr inbounds ([12 x i8], [12 x i8]* @.str.2, i64 0, i64 0), metadata !1227, metadata !DIExpression()), !dbg !1404
  %call1.i112 = tail call noundef nonnull align 8 dereferenceable(8) %"class.std::basic_ostream"* @_ZSt16__ostream_insertIcSt11char_traitsIcEERSt13basic_ostreamIT_T0_ES6_PKS3_l(%"class.std::basic_ostream"* noundef nonnull align 8 dereferenceable(8) @_ZSt4cout, i8* noundef nonnull getelementptr inbounds ([12 x i8], [12 x i8]* @.str.2, i64 0, i64 0), i64 noundef 11), !dbg !1406
  %conv16 = uitofp i64 %div to double, !dbg !1407
  %div17 = fdiv double %conv16, 1.000000e+03, !dbg !1408
  call void @llvm.dbg.value(metadata %"class.std::basic_ostream"* @_ZSt4cout, metadata !1409, metadata !DIExpression()), !dbg !1416
  call void @llvm.dbg.value(metadata double %div17, metadata !1415, metadata !DIExpression()), !dbg !1416
  %call.i114 = tail call noundef nonnull align 8 dereferenceable(8) %"class.std::basic_ostream"* @_ZNSo9_M_insertIdEERSoT_(%"class.std::basic_ostream"* noundef nonnull align 8 dereferenceable(8) @_ZSt4cout, double noundef %div17), !dbg !1418
  call void @llvm.dbg.value(metadata %"class.std::basic_ostream"* %call.i114, metadata !1218, metadata !DIExpression()), !dbg !1419
  call void @llvm.dbg.value(metadata i8* getelementptr inbounds ([2 x i8], [2 x i8]* @.str.3, i64 0, i64 0), metadata !1227, metadata !DIExpression()), !dbg !1419
  %call1.i116 = tail call noundef nonnull align 8 dereferenceable(8) %"class.std::basic_ostream"* @_ZSt16__ostream_insertIcSt11char_traitsIcEERSt13basic_ostreamIT_T0_ES6_PKS3_l(%"class.std::basic_ostream"* noundef nonnull align 8 dereferenceable(8) %call.i114, i8* noundef nonnull getelementptr inbounds ([2 x i8], [2 x i8]* @.str.3, i64 0, i64 0), i64 noundef 1), !dbg !1421
  call void @llvm.dbg.value(metadata i32 0, metadata !1162, metadata !DIExpression()), !dbg !1422
  br label %for.cond21, !dbg !1423

for.body4:                                        ; preds = %for.body4.preheader204, %for.body4
  %indvars.iv = phi i64 [ %indvars.iv.next, %for.body4 ], [ %indvars.iv.ph, %for.body4.preheader204 ]
  call void @llvm.dbg.value(metadata i64 %indvars.iv, metadata !1155, metadata !DIExpression()), !dbg !1170
  %arrayidx = getelementptr inbounds i32, i32* %4, i64 %indvars.iv, !dbg !1424
  %47 = trunc i64 %indvars.iv to i32, !dbg !1174
  store i32 %47, i32* %arrayidx, align 4, !dbg !1174, !tbaa !1000
  %indvars.iv.next = add nuw nsw i64 %indvars.iv, 1, !dbg !1172
  call void @llvm.dbg.value(metadata i64 %indvars.iv.next, metadata !1155, metadata !DIExpression()), !dbg !1170
  %exitcond.not = icmp eq i64 %indvars.iv.next, %wide.trip.count, !dbg !1425
  br i1 %exitcond.not, label %for.cond.cleanup3, label %for.body4, !dbg !1171, !llvm.loop !1426

for.cond21:                                       ; preds = %for.body25, %_ZSt4endlIcSt11char_traitsIcEERSt13basic_ostreamIT_T0_ES6_.exit
  %indvars.iv190 = phi i64 [ %indvars.iv.next191, %for.body25 ], [ 0, %_ZSt4endlIcSt11char_traitsIcEERSt13basic_ostreamIT_T0_ES6_.exit ], !dbg !1422
  call void @llvm.dbg.value(metadata i64 %indvars.iv190, metadata !1162, metadata !DIExpression()), !dbg !1422
  %exitcond194.not = icmp eq i64 %indvars.iv190, %wide.trip.count193, !dbg !1428
  br i1 %exitcond194.not, label %for.end48, label %for.body25, !dbg !1430

for.body25:                                       ; preds = %for.cond21
  %arrayidx27 = getelementptr inbounds i32, i32* %4, i64 %indvars.iv190, !dbg !1431
  %48 = load i32, i32* %arrayidx27, align 4, !dbg !1431, !tbaa !1000
  %indvars.iv.next191 = add nuw nsw i64 %indvars.iv190, 1, !dbg !1434
  %arrayidx29 = getelementptr inbounds i32, i32* %4, i64 %indvars.iv.next191, !dbg !1435
  %49 = load i32, i32* %arrayidx29, align 4, !dbg !1435, !tbaa !1000
  %cmp30.not = icmp slt i32 %48, %49, !dbg !1436
  %50 = zext i32 %48 to i64
  %cmp33.not = icmp eq i64 %indvars.iv190, %50
  %or.cond = select i1 %cmp30.not, i1 %cmp33.not, i1 false, !dbg !1437
  br i1 %or.cond, label %for.cond21, label %if.then, !dbg !1437, !llvm.loop !1438

if.then:                                          ; preds = %for.body25
  %51 = trunc i64 %indvars.iv190 to i32, !dbg !1386
  %idxprom26.le = and i64 %indvars.iv190, 4294967295, !dbg !1431
  %arrayidx27.le = getelementptr inbounds i32, i32* %4, i64 %idxprom26.le, !dbg !1431
  %idxprom28.le = and i64 %indvars.iv.next191, 4294967295, !dbg !1435
  %arrayidx29.le = getelementptr inbounds i32, i32* %4, i64 %idxprom28.le, !dbg !1435
  call void @llvm.dbg.value(metadata %"class.std::basic_ostream"* @_ZSt4cerr, metadata !1218, metadata !DIExpression()), !dbg !1440
  call void @llvm.dbg.value(metadata i8* getelementptr inbounds ([27 x i8], [27 x i8]* @.str.4, i64 0, i64 0), metadata !1227, metadata !DIExpression()), !dbg !1440
  %call1.i119 = tail call noundef nonnull align 8 dereferenceable(8) %"class.std::basic_ostream"* @_ZSt16__ostream_insertIcSt11char_traitsIcEERSt13basic_ostreamIT_T0_ES6_PKS3_l(%"class.std::basic_ostream"* noundef nonnull align 8 dereferenceable(8) @_ZSt4cerr, i8* noundef nonnull getelementptr inbounds ([27 x i8], [27 x i8]* @.str.4, i64 0, i64 0), i64 noundef 26), !dbg !1443
  %call35 = tail call noundef nonnull align 8 dereferenceable(8) %"class.std::basic_ostream"* @_ZNSolsEi(%"class.std::basic_ostream"* noundef nonnull align 8 dereferenceable(8) @_ZSt4cerr, i32 noundef %51), !dbg !1444
  call void @llvm.dbg.value(metadata %"class.std::basic_ostream"* %call35, metadata !1218, metadata !DIExpression()), !dbg !1445
  call void @llvm.dbg.value(metadata i8* getelementptr inbounds ([9 x i8], [9 x i8]* @.str.5, i64 0, i64 0), metadata !1227, metadata !DIExpression()), !dbg !1445
  %call1.i122 = tail call noundef nonnull align 8 dereferenceable(8) %"class.std::basic_ostream"* @_ZSt16__ostream_insertIcSt11char_traitsIcEERSt13basic_ostreamIT_T0_ES6_PKS3_l(%"class.std::basic_ostream"* noundef nonnull align 8 dereferenceable(8) %call35, i8* noundef nonnull getelementptr inbounds ([9 x i8], [9 x i8]* @.str.5, i64 0, i64 0), i64 noundef 8), !dbg !1447
  %52 = load i32, i32* %arrayidx27.le, align 4, !dbg !1448, !tbaa !1000
  %call39 = tail call noundef nonnull align 8 dereferenceable(8) %"class.std::basic_ostream"* @_ZNSolsEi(%"class.std::basic_ostream"* noundef nonnull align 8 dereferenceable(8) %call35, i32 noundef %52), !dbg !1449
  call void @llvm.dbg.value(metadata %"class.std::basic_ostream"* %call39, metadata !1218, metadata !DIExpression()), !dbg !1450
  call void @llvm.dbg.value(metadata i8* getelementptr inbounds ([11 x i8], [11 x i8]* @.str.6, i64 0, i64 0), metadata !1227, metadata !DIExpression()), !dbg !1450
  %call1.i125 = tail call noundef nonnull align 8 dereferenceable(8) %"class.std::basic_ostream"* @_ZSt16__ostream_insertIcSt11char_traitsIcEERSt13basic_ostreamIT_T0_ES6_PKS3_l(%"class.std::basic_ostream"* noundef nonnull align 8 dereferenceable(8) %call39, i8* noundef nonnull getelementptr inbounds ([11 x i8], [11 x i8]* @.str.6, i64 0, i64 0), i64 noundef 10), !dbg !1452
  %53 = load i32, i32* %arrayidx29.le, align 4, !dbg !1453, !tbaa !1000
  %call44 = tail call noundef nonnull align 8 dereferenceable(8) %"class.std::basic_ostream"* @_ZNSolsEi(%"class.std::basic_ostream"* noundef nonnull align 8 dereferenceable(8) %call39, i32 noundef %53), !dbg !1454
  call void @llvm.dbg.value(metadata %"class.std::basic_ostream"* %call44, metadata !1291, metadata !DIExpression()), !dbg !1455
  call void @llvm.dbg.value(metadata %"class.std::basic_ostream"* %call44, metadata !1307, metadata !DIExpression()), !dbg !1457
  %54 = bitcast %"class.std::basic_ostream"* %call44 to i8**, !dbg !1459
  %vtable.i134 = load i8*, i8** %54, align 8, !dbg !1459, !tbaa !1316
  %vbase.offset.ptr.i135 = getelementptr i8, i8* %vtable.i134, i64 -24, !dbg !1459
  %55 = bitcast i8* %vbase.offset.ptr.i135 to i64*, !dbg !1459
  %vbase.offset.i136 = load i64, i64* %55, align 8, !dbg !1459
  %56 = bitcast %"class.std::basic_ostream"* %call44 to i8*, !dbg !1459
  %add.ptr.i137 = getelementptr inbounds i8, i8* %56, i64 %vbase.offset.i136, !dbg !1459
  call void @llvm.dbg.value(metadata i8* %add.ptr.i137, metadata !1318, metadata !DIExpression()), !dbg !1460
  call void @llvm.dbg.value(metadata i8 10, metadata !1330, metadata !DIExpression()), !dbg !1460
  %_M_ctype.i.i138 = getelementptr inbounds i8, i8* %add.ptr.i137, i64 240, !dbg !1462
  %57 = bitcast i8* %_M_ctype.i.i138 to %"class.std::ctype"**, !dbg !1462
  %58 = load %"class.std::ctype"*, %"class.std::ctype"** %57, align 8, !dbg !1462, !tbaa !1335
  call void @llvm.dbg.value(metadata %"class.std::ctype"* %58, metadata !1339, metadata !DIExpression()), !dbg !1463
  %tobool.not.i.i.i139 = icmp eq %"class.std::ctype"* %58, null, !dbg !1465
  br i1 %tobool.not.i.i.i139, label %if.then.i.i.i140, label %_ZSt13__check_facetISt5ctypeIcEERKT_PS3_.exit.i.i143, !dbg !1466

if.then.i.i.i140:                                 ; preds = %if.then
  tail call void @_ZSt16__throw_bad_castv() #20, !dbg !1467
  unreachable, !dbg !1467

_ZSt13__check_facetISt5ctypeIcEERKT_PS3_.exit.i.i143: ; preds = %if.then
  call void @llvm.dbg.value(metadata %"class.std::ctype"* %58, metadata !1357, metadata !DIExpression()), !dbg !1468
  call void @llvm.dbg.value(metadata i8 10, metadata !1365, metadata !DIExpression()), !dbg !1468
  %_M_widen_ok.i.i.i141 = getelementptr inbounds %"class.std::ctype", %"class.std::ctype"* %58, i64 0, i32 8, !dbg !1470
  %59 = load i8, i8* %_M_widen_ok.i.i.i141, align 8, !dbg !1470, !tbaa !1370
  %tobool.not.i3.i.i142 = icmp eq i8 %59, 0, !dbg !1470
  br i1 %tobool.not.i3.i.i142, label %if.end.i.i.i149, label %if.then.i4.i.i145, !dbg !1471

if.then.i4.i.i145:                                ; preds = %_ZSt13__check_facetISt5ctypeIcEERKT_PS3_.exit.i.i143
  %arrayidx.i.i.i144 = getelementptr inbounds %"class.std::ctype", %"class.std::ctype"* %58, i64 0, i32 9, i64 10, !dbg !1472
  %60 = load i8, i8* %arrayidx.i.i.i144, align 1, !dbg !1472, !tbaa !1374
  br label %cleanup57, !dbg !1473

if.end.i.i.i149:                                  ; preds = %_ZSt13__check_facetISt5ctypeIcEERKT_PS3_.exit.i.i143
  tail call void @_ZNKSt5ctypeIcE13_M_widen_initEv(%"class.std::ctype"* noundef nonnull align 8 dereferenceable(570) %58), !dbg !1474
  %61 = bitcast %"class.std::ctype"* %58 to i8 (%"class.std::ctype"*, i8)***, !dbg !1475
  %vtable.i.i.i146 = load i8 (%"class.std::ctype"*, i8)**, i8 (%"class.std::ctype"*, i8)*** %61, align 8, !dbg !1475, !tbaa !1316
  %vfn.i.i.i147 = getelementptr inbounds i8 (%"class.std::ctype"*, i8)*, i8 (%"class.std::ctype"*, i8)** %vtable.i.i.i146, i64 6, !dbg !1475
  %62 = load i8 (%"class.std::ctype"*, i8)*, i8 (%"class.std::ctype"*, i8)** %vfn.i.i.i147, align 8, !dbg !1475
  %call.i.i.i148 = tail call noundef signext i8 %62(%"class.std::ctype"* noundef nonnull align 8 dereferenceable(570) %58, i8 noundef signext 10), !dbg !1475
  br label %cleanup57, !dbg !1476

for.end48:                                        ; preds = %for.cond21
  call void @llvm.dbg.value(metadata %"class.std::basic_ostream"* @_ZSt4cerr, metadata !1218, metadata !DIExpression()), !dbg !1477
  call void @llvm.dbg.value(metadata i8* getelementptr inbounds ([16 x i8], [16 x i8]* @.str.7, i64 0, i64 0), metadata !1227, metadata !DIExpression()), !dbg !1477
  %call1.i129 = tail call noundef nonnull align 8 dereferenceable(8) %"class.std::basic_ostream"* @_ZSt16__ostream_insertIcSt11char_traitsIcEERSt13basic_ostreamIT_T0_ES6_PKS3_l(%"class.std::basic_ostream"* noundef nonnull align 8 dereferenceable(8) @_ZSt4cerr, i8* noundef nonnull getelementptr inbounds ([16 x i8], [16 x i8]* @.str.7, i64 0, i64 0), i64 noundef 15), !dbg !1479
  call void @llvm.dbg.value(metadata %"class.std::basic_ostream"* @_ZSt4cerr, metadata !1291, metadata !DIExpression()), !dbg !1480
  call void @llvm.dbg.value(metadata %"class.std::basic_ostream"* @_ZSt4cerr, metadata !1307, metadata !DIExpression()), !dbg !1482
  %vtable.i154 = load i8*, i8** bitcast (%"class.std::basic_ostream"* @_ZSt4cerr to i8**), align 8, !dbg !1484, !tbaa !1316
  %vbase.offset.ptr.i155 = getelementptr i8, i8* %vtable.i154, i64 -24, !dbg !1484
  %63 = bitcast i8* %vbase.offset.ptr.i155 to i64*, !dbg !1484
  %vbase.offset.i156 = load i64, i64* %63, align 8, !dbg !1484
  call void @llvm.dbg.value(metadata i8* bitcast (%"class.std::basic_streambuf"** getelementptr inbounds (%"class.std::basic_ostream", %"class.std::basic_ostream"* @_ZSt4cerr, i64 0, i32 1, i32 4) to i8*), metadata !1318, metadata !DIExpression()), !dbg !1485
  call void @llvm.dbg.value(metadata i8 10, metadata !1330, metadata !DIExpression()), !dbg !1485
  %_M_ctype.i.i158 = getelementptr inbounds i8, i8* bitcast (%"class.std::basic_streambuf"** getelementptr inbounds (%"class.std::basic_ostream", %"class.std::basic_ostream"* @_ZSt4cerr, i64 0, i32 1, i32 4) to i8*), i64 %vbase.offset.i156, !dbg !1487
  %64 = bitcast i8* %_M_ctype.i.i158 to %"class.std::ctype"**, !dbg !1487
  %65 = load %"class.std::ctype"*, %"class.std::ctype"** %64, align 8, !dbg !1487, !tbaa !1335
  call void @llvm.dbg.value(metadata %"class.std::ctype"* %65, metadata !1339, metadata !DIExpression()), !dbg !1488
  %tobool.not.i.i.i159 = icmp eq %"class.std::ctype"* %65, null, !dbg !1490
  br i1 %tobool.not.i.i.i159, label %if.then.i.i.i160, label %_ZSt13__check_facetISt5ctypeIcEERKT_PS3_.exit.i.i163, !dbg !1491

if.then.i.i.i160:                                 ; preds = %for.end48
  tail call void @_ZSt16__throw_bad_castv() #20, !dbg !1492
  unreachable, !dbg !1492

_ZSt13__check_facetISt5ctypeIcEERKT_PS3_.exit.i.i163: ; preds = %for.end48
  call void @llvm.dbg.value(metadata %"class.std::ctype"* %65, metadata !1357, metadata !DIExpression()), !dbg !1493
  call void @llvm.dbg.value(metadata i8 10, metadata !1365, metadata !DIExpression()), !dbg !1493
  %_M_widen_ok.i.i.i161 = getelementptr inbounds %"class.std::ctype", %"class.std::ctype"* %65, i64 0, i32 8, !dbg !1495
  %66 = load i8, i8* %_M_widen_ok.i.i.i161, align 8, !dbg !1495, !tbaa !1370
  %tobool.not.i3.i.i162 = icmp eq i8 %66, 0, !dbg !1495
  br i1 %tobool.not.i3.i.i162, label %if.end.i.i.i169, label %if.then.i4.i.i165, !dbg !1496

if.then.i4.i.i165:                                ; preds = %_ZSt13__check_facetISt5ctypeIcEERKT_PS3_.exit.i.i163
  %arrayidx.i.i.i164 = getelementptr inbounds %"class.std::ctype", %"class.std::ctype"* %65, i64 0, i32 9, i64 10, !dbg !1497
  %67 = load i8, i8* %arrayidx.i.i.i164, align 1, !dbg !1497, !tbaa !1374
  br label %for.inc55, !dbg !1498

if.end.i.i.i169:                                  ; preds = %_ZSt13__check_facetISt5ctypeIcEERKT_PS3_.exit.i.i163
  tail call void @_ZNKSt5ctypeIcE13_M_widen_initEv(%"class.std::ctype"* noundef nonnull align 8 dereferenceable(570) %65), !dbg !1499
  %68 = bitcast %"class.std::ctype"* %65 to i8 (%"class.std::ctype"*, i8)***, !dbg !1500
  %vtable.i.i.i166 = load i8 (%"class.std::ctype"*, i8)**, i8 (%"class.std::ctype"*, i8)*** %68, align 8, !dbg !1500, !tbaa !1316
  %vfn.i.i.i167 = getelementptr inbounds i8 (%"class.std::ctype"*, i8)*, i8 (%"class.std::ctype"*, i8)** %vtable.i.i.i166, i64 6, !dbg !1500
  %69 = load i8 (%"class.std::ctype"*, i8)*, i8 (%"class.std::ctype"*, i8)** %vfn.i.i.i167, align 8, !dbg !1500
  %call.i.i.i168 = tail call noundef signext i8 %69(%"class.std::ctype"* noundef nonnull align 8 dereferenceable(570) %65, i8 noundef signext 10), !dbg !1500
  br label %for.inc55, !dbg !1501

for.inc55:                                        ; preds = %if.end.i.i.i169, %if.then.i4.i.i165
  %retval.0.i.i.i170 = phi i8 [ %67, %if.then.i4.i.i165 ], [ %call.i.i.i168, %if.end.i.i.i169 ], !dbg !1493
  %call1.i171 = tail call noundef nonnull align 8 dereferenceable(8) %"class.std::basic_ostream"* @_ZNSo3putEc(%"class.std::basic_ostream"* noundef nonnull align 8 dereferenceable(8) @_ZSt4cerr, i8 noundef signext %retval.0.i.i.i170), !dbg !1502
  call void @llvm.dbg.value(metadata %"class.std::basic_ostream"* %call1.i171, metadata !1380, metadata !DIExpression()), !dbg !1503
  %call.i.i172 = tail call noundef nonnull align 8 dereferenceable(8) %"class.std::basic_ostream"* @_ZNSo5flushEv(%"class.std::basic_ostream"* noundef nonnull align 8 dereferenceable(8) %call1.i171), !dbg !1505
  call void @llvm.lifetime.end.p0i8(i64 16, i8* nonnull %6) #19, !dbg !1506
  call void @llvm.lifetime.end.p0i8(i64 16, i8* nonnull %5) #19, !dbg !1506
  %inc56 = add nuw nsw i32 %r.0187, 1, !dbg !1507
  call void @llvm.dbg.value(metadata i32 %inc56, metadata !1153, metadata !DIExpression()), !dbg !1167
  %exitcond195.not = icmp eq i32 %inc56, %round, !dbg !1168
  br i1 %exitcond195.not, label %delete.notnull61, label %for.cond1.preheader, !dbg !1169, !llvm.loop !1508

cleanup57:                                        ; preds = %if.then.i4.i.i145, %if.end.i.i.i149
  %retval.0.i.i.i150 = phi i8 [ %60, %if.then.i4.i.i145 ], [ %call.i.i.i148, %if.end.i.i.i149 ], !dbg !1468
  %call1.i151 = tail call noundef nonnull align 8 dereferenceable(8) %"class.std::basic_ostream"* @_ZNSo3putEc(%"class.std::basic_ostream"* noundef nonnull align 8 dereferenceable(8) %call44, i8 noundef signext %retval.0.i.i.i150), !dbg !1510
  call void @llvm.dbg.value(metadata %"class.std::basic_ostream"* %call1.i151, metadata !1380, metadata !DIExpression()), !dbg !1511
  %call.i.i152 = tail call noundef nonnull align 8 dereferenceable(8) %"class.std::basic_ostream"* @_ZNSo5flushEv(%"class.std::basic_ostream"* noundef nonnull align 8 dereferenceable(8) %call1.i151), !dbg !1513
  tail call void @_ZdaPv(i8* noundef nonnull %call) #21, !dbg !1514
  call void @llvm.lifetime.end.p0i8(i64 16, i8* nonnull %6) #19, !dbg !1506
  call void @llvm.lifetime.end.p0i8(i64 16, i8* nonnull %5) #19, !dbg !1506
  br label %cleanup63

delete.notnull61:                                 ; preds = %for.inc55, %entry
  tail call void @_ZdaPv(i8* noundef nonnull %call) #21, !dbg !1515
  br label %cleanup63, !dbg !1516

cleanup63:                                        ; preds = %cleanup57, %delete.notnull61
  %retval.3 = phi i32 [ 0, %delete.notnull61 ], [ 1, %cleanup57 ], !dbg !1164
  ret i32 %retval.3, !dbg !1517
}

; Function Attrs: mustprogress nofree nosync nounwind readnone speculatable willreturn
declare { i64, i1 } @llvm.umul.with.overflow.i64(i64, i64) #5

; Function Attrs: nobuiltin allocsize(0)
declare dso_local noundef nonnull i8* @_Znam(i64 noundef) local_unnamed_addr #10

declare dso_local noundef nonnull align 8 dereferenceable(8) %"class.std::basic_ostream"* @_ZNSolsEi(%"class.std::basic_ostream"* noundef nonnull align 8 dereferenceable(8), i32 noundef) local_unnamed_addr #0

; Function Attrs: nofree nounwind
declare !dbg !1518 dso_local noundef i32 @gettimeofday(%struct.timeval* nocapture noundef, %struct.timezone* nocapture noundef) local_unnamed_addr #11

; Function Attrs: nobuiltin nounwind
declare dso_local void @_ZdaPv(i8* noundef) local_unnamed_addr #12

; Function Attrs: mustprogress norecurse uwtable
define dso_local noundef i32 @main(i32 noundef %argc, i8** nocapture noundef readonly %argv) local_unnamed_addr #13 !dbg !1527 {
entry:
  call void @llvm.dbg.value(metadata i32 %argc, metadata !1531, metadata !DIExpression()), !dbg !1536
  call void @llvm.dbg.value(metadata i8** %argv, metadata !1532, metadata !DIExpression()), !dbg !1536
  call void @llvm.dbg.value(metadata i32 10000000, metadata !1533, metadata !DIExpression()), !dbg !1536
  call void @llvm.dbg.value(metadata i32 1, metadata !1534, metadata !DIExpression()), !dbg !1536
  %cmp = icmp sgt i32 %argc, 1, !dbg !1537
  br i1 %cmp, label %if.then, label %if.end14, !dbg !1539

if.then:                                          ; preds = %entry
  %arrayidx = getelementptr inbounds i8*, i8** %argv, i64 1, !dbg !1540
  %0 = load i8*, i8** %arrayidx, align 8, !dbg !1540, !tbaa !1542
  call void @llvm.dbg.value(metadata i8* %0, metadata !128, metadata !DIExpression()) #19, !dbg !1543
  %call.i = tail call i64 @strtol(i8* nocapture noundef nonnull %0, i8** noundef null, i32 noundef 10) #19, !dbg !1545
  %conv.i = trunc i64 %call.i to i32, !dbg !1545
  call void @llvm.dbg.value(metadata i32 %conv.i, metadata !1533, metadata !DIExpression()), !dbg !1536
  %cmp1 = icmp slt i32 %conv.i, 1, !dbg !1546
  br i1 %cmp1, label %if.then2, label %if.end9, !dbg !1548

if.then2:                                         ; preds = %if.then
  call void @llvm.dbg.value(metadata %"class.std::basic_ostream"* @_ZSt4cerr, metadata !1218, metadata !DIExpression()), !dbg !1549
  call void @llvm.dbg.value(metadata i8* getelementptr inbounds ([17 x i8], [17 x i8]* @.str.8, i64 0, i64 0), metadata !1227, metadata !DIExpression()), !dbg !1549
  %call1.i = tail call noundef nonnull align 8 dereferenceable(8) %"class.std::basic_ostream"* @_ZSt16__ostream_insertIcSt11char_traitsIcEERSt13basic_ostreamIT_T0_ES6_PKS3_l(%"class.std::basic_ostream"* noundef nonnull align 8 dereferenceable(8) @_ZSt4cerr, i8* noundef nonnull getelementptr inbounds ([17 x i8], [17 x i8]* @.str.8, i64 0, i64 0), i64 noundef 16), !dbg !1552
  call void @llvm.dbg.value(metadata %"class.std::basic_ostream"* @_ZSt4cerr, metadata !1291, metadata !DIExpression()), !dbg !1553
  call void @llvm.dbg.value(metadata %"class.std::basic_ostream"* @_ZSt4cerr, metadata !1307, metadata !DIExpression()), !dbg !1555
  %vtable.i = load i8*, i8** bitcast (%"class.std::basic_ostream"* @_ZSt4cerr to i8**), align 8, !dbg !1557, !tbaa !1316
  %vbase.offset.ptr.i = getelementptr i8, i8* %vtable.i, i64 -24, !dbg !1557
  %1 = bitcast i8* %vbase.offset.ptr.i to i64*, !dbg !1557
  %vbase.offset.i = load i64, i64* %1, align 8, !dbg !1557
  %add.ptr.i = getelementptr inbounds i8, i8* bitcast (%"class.std::basic_ostream"* @_ZSt4cerr to i8*), i64 %vbase.offset.i, !dbg !1557
  call void @llvm.dbg.value(metadata i8* %add.ptr.i, metadata !1318, metadata !DIExpression()), !dbg !1558
  call void @llvm.dbg.value(metadata i8 10, metadata !1330, metadata !DIExpression()), !dbg !1558
  %_M_ctype.i.i = getelementptr inbounds i8, i8* %add.ptr.i, i64 240, !dbg !1560
  %2 = bitcast i8* %_M_ctype.i.i to %"class.std::ctype"**, !dbg !1560
  %3 = load %"class.std::ctype"*, %"class.std::ctype"** %2, align 8, !dbg !1560, !tbaa !1335
  call void @llvm.dbg.value(metadata %"class.std::ctype"* %3, metadata !1339, metadata !DIExpression()), !dbg !1561
  %tobool.not.i.i.i = icmp eq %"class.std::ctype"* %3, null, !dbg !1563
  br i1 %tobool.not.i.i.i, label %if.then.i.i.i, label %_ZSt13__check_facetISt5ctypeIcEERKT_PS3_.exit.i.i, !dbg !1564

if.then.i.i.i:                                    ; preds = %if.then2
  tail call void @_ZSt16__throw_bad_castv() #20, !dbg !1565
  unreachable, !dbg !1565

_ZSt13__check_facetISt5ctypeIcEERKT_PS3_.exit.i.i: ; preds = %if.then2
  call void @llvm.dbg.value(metadata %"class.std::ctype"* %3, metadata !1357, metadata !DIExpression()), !dbg !1566
  call void @llvm.dbg.value(metadata i8 10, metadata !1365, metadata !DIExpression()), !dbg !1566
  %_M_widen_ok.i.i.i = getelementptr inbounds %"class.std::ctype", %"class.std::ctype"* %3, i64 0, i32 8, !dbg !1568
  %4 = load i8, i8* %_M_widen_ok.i.i.i, align 8, !dbg !1568, !tbaa !1370
  %tobool.not.i3.i.i = icmp eq i8 %4, 0, !dbg !1568
  br i1 %tobool.not.i3.i.i, label %if.end.i.i.i, label %if.then.i4.i.i, !dbg !1569

if.then.i4.i.i:                                   ; preds = %_ZSt13__check_facetISt5ctypeIcEERKT_PS3_.exit.i.i
  %arrayidx.i.i.i = getelementptr inbounds %"class.std::ctype", %"class.std::ctype"* %3, i64 0, i32 9, i64 10, !dbg !1570
  %5 = load i8, i8* %arrayidx.i.i.i, align 1, !dbg !1570, !tbaa !1374
  br label %_ZSt4endlIcSt11char_traitsIcEERSt13basic_ostreamIT_T0_ES6_.exit, !dbg !1571

if.end.i.i.i:                                     ; preds = %_ZSt13__check_facetISt5ctypeIcEERKT_PS3_.exit.i.i
  tail call void @_ZNKSt5ctypeIcE13_M_widen_initEv(%"class.std::ctype"* noundef nonnull align 8 dereferenceable(570) %3), !dbg !1572
  %6 = bitcast %"class.std::ctype"* %3 to i8 (%"class.std::ctype"*, i8)***, !dbg !1573
  %vtable.i.i.i = load i8 (%"class.std::ctype"*, i8)**, i8 (%"class.std::ctype"*, i8)*** %6, align 8, !dbg !1573, !tbaa !1316
  %vfn.i.i.i = getelementptr inbounds i8 (%"class.std::ctype"*, i8)*, i8 (%"class.std::ctype"*, i8)** %vtable.i.i.i, i64 6, !dbg !1573
  %7 = load i8 (%"class.std::ctype"*, i8)*, i8 (%"class.std::ctype"*, i8)** %vfn.i.i.i, align 8, !dbg !1573
  %call.i.i.i = tail call noundef signext i8 %7(%"class.std::ctype"* noundef nonnull align 8 dereferenceable(570) %3, i8 noundef signext 10), !dbg !1573
  br label %_ZSt4endlIcSt11char_traitsIcEERSt13basic_ostreamIT_T0_ES6_.exit, !dbg !1574

_ZSt4endlIcSt11char_traitsIcEERSt13basic_ostreamIT_T0_ES6_.exit: ; preds = %if.then.i4.i.i, %if.end.i.i.i
  %retval.0.i.i.i = phi i8 [ %5, %if.then.i4.i.i ], [ %call.i.i.i, %if.end.i.i.i ], !dbg !1566
  %call1.i32 = tail call noundef nonnull align 8 dereferenceable(8) %"class.std::basic_ostream"* @_ZNSo3putEc(%"class.std::basic_ostream"* noundef nonnull align 8 dereferenceable(8) @_ZSt4cerr, i8 noundef signext %retval.0.i.i.i), !dbg !1575
  call void @llvm.dbg.value(metadata %"class.std::basic_ostream"* %call1.i32, metadata !1380, metadata !DIExpression()), !dbg !1576
  %call.i.i33 = tail call noundef nonnull align 8 dereferenceable(8) %"class.std::basic_ostream"* @_ZNSo5flushEv(%"class.std::basic_ostream"* noundef nonnull align 8 dereferenceable(8) %call1.i32), !dbg !1578
  call void @llvm.dbg.value(metadata %"class.std::basic_ostream"* @_ZSt4cerr, metadata !1218, metadata !DIExpression()), !dbg !1579
  call void @llvm.dbg.value(metadata i8* getelementptr inbounds ([15 x i8], [15 x i8]* @.str.9, i64 0, i64 0), metadata !1227, metadata !DIExpression()), !dbg !1579
  %call1.i25 = tail call noundef nonnull align 8 dereferenceable(8) %"class.std::basic_ostream"* @_ZSt16__ostream_insertIcSt11char_traitsIcEERSt13basic_ostreamIT_T0_ES6_PKS3_l(%"class.std::basic_ostream"* noundef nonnull align 8 dereferenceable(8) @_ZSt4cerr, i8* noundef nonnull getelementptr inbounds ([15 x i8], [15 x i8]* @.str.9, i64 0, i64 0), i64 noundef 14), !dbg !1581
  call void @llvm.dbg.value(metadata %"class.std::basic_ostream"* @_ZSt4cerr, metadata !1291, metadata !DIExpression()), !dbg !1582
  call void @llvm.dbg.value(metadata %"class.std::basic_ostream"* @_ZSt4cerr, metadata !1307, metadata !DIExpression()), !dbg !1584
  %vtable.i34 = load i8*, i8** bitcast (%"class.std::basic_ostream"* @_ZSt4cerr to i8**), align 8, !dbg !1586, !tbaa !1316
  %vbase.offset.ptr.i35 = getelementptr i8, i8* %vtable.i34, i64 -24, !dbg !1586
  %8 = bitcast i8* %vbase.offset.ptr.i35 to i64*, !dbg !1586
  %vbase.offset.i36 = load i64, i64* %8, align 8, !dbg !1586
  %add.ptr.i37 = getelementptr inbounds i8, i8* bitcast (%"class.std::basic_ostream"* @_ZSt4cerr to i8*), i64 %vbase.offset.i36, !dbg !1586
  call void @llvm.dbg.value(metadata i8* %add.ptr.i37, metadata !1318, metadata !DIExpression()), !dbg !1587
  call void @llvm.dbg.value(metadata i8 10, metadata !1330, metadata !DIExpression()), !dbg !1587
  %_M_ctype.i.i38 = getelementptr inbounds i8, i8* %add.ptr.i37, i64 240, !dbg !1589
  %9 = bitcast i8* %_M_ctype.i.i38 to %"class.std::ctype"**, !dbg !1589
  %10 = load %"class.std::ctype"*, %"class.std::ctype"** %9, align 8, !dbg !1589, !tbaa !1335
  call void @llvm.dbg.value(metadata %"class.std::ctype"* %10, metadata !1339, metadata !DIExpression()), !dbg !1590
  %tobool.not.i.i.i39 = icmp eq %"class.std::ctype"* %10, null, !dbg !1592
  br i1 %tobool.not.i.i.i39, label %if.then.i.i.i40, label %_ZSt13__check_facetISt5ctypeIcEERKT_PS3_.exit.i.i43, !dbg !1593

if.then.i.i.i40:                                  ; preds = %_ZSt4endlIcSt11char_traitsIcEERSt13basic_ostreamIT_T0_ES6_.exit
  tail call void @_ZSt16__throw_bad_castv() #20, !dbg !1594
  unreachable, !dbg !1594

_ZSt13__check_facetISt5ctypeIcEERKT_PS3_.exit.i.i43: ; preds = %_ZSt4endlIcSt11char_traitsIcEERSt13basic_ostreamIT_T0_ES6_.exit
  call void @llvm.dbg.value(metadata %"class.std::ctype"* %10, metadata !1357, metadata !DIExpression()), !dbg !1595
  call void @llvm.dbg.value(metadata i8 10, metadata !1365, metadata !DIExpression()), !dbg !1595
  %_M_widen_ok.i.i.i41 = getelementptr inbounds %"class.std::ctype", %"class.std::ctype"* %10, i64 0, i32 8, !dbg !1597
  %11 = load i8, i8* %_M_widen_ok.i.i.i41, align 8, !dbg !1597, !tbaa !1370
  %tobool.not.i3.i.i42 = icmp eq i8 %11, 0, !dbg !1597
  br i1 %tobool.not.i3.i.i42, label %if.end.i.i.i49, label %if.then.i4.i.i45, !dbg !1598

if.then.i4.i.i45:                                 ; preds = %_ZSt13__check_facetISt5ctypeIcEERKT_PS3_.exit.i.i43
  %arrayidx.i.i.i44 = getelementptr inbounds %"class.std::ctype", %"class.std::ctype"* %10, i64 0, i32 9, i64 10, !dbg !1599
  %12 = load i8, i8* %arrayidx.i.i.i44, align 1, !dbg !1599, !tbaa !1374
  br label %_ZSt4endlIcSt11char_traitsIcEERSt13basic_ostreamIT_T0_ES6_.exit53, !dbg !1600

if.end.i.i.i49:                                   ; preds = %_ZSt13__check_facetISt5ctypeIcEERKT_PS3_.exit.i.i43
  tail call void @_ZNKSt5ctypeIcE13_M_widen_initEv(%"class.std::ctype"* noundef nonnull align 8 dereferenceable(570) %10), !dbg !1601
  %13 = bitcast %"class.std::ctype"* %10 to i8 (%"class.std::ctype"*, i8)***, !dbg !1602
  %vtable.i.i.i46 = load i8 (%"class.std::ctype"*, i8)**, i8 (%"class.std::ctype"*, i8)*** %13, align 8, !dbg !1602, !tbaa !1316
  %vfn.i.i.i47 = getelementptr inbounds i8 (%"class.std::ctype"*, i8)*, i8 (%"class.std::ctype"*, i8)** %vtable.i.i.i46, i64 6, !dbg !1602
  %14 = load i8 (%"class.std::ctype"*, i8)*, i8 (%"class.std::ctype"*, i8)** %vfn.i.i.i47, align 8, !dbg !1602
  %call.i.i.i48 = tail call noundef signext i8 %14(%"class.std::ctype"* noundef nonnull align 8 dereferenceable(570) %10, i8 noundef signext 10), !dbg !1602
  br label %_ZSt4endlIcSt11char_traitsIcEERSt13basic_ostreamIT_T0_ES6_.exit53, !dbg !1603

_ZSt4endlIcSt11char_traitsIcEERSt13basic_ostreamIT_T0_ES6_.exit53: ; preds = %if.then.i4.i.i45, %if.end.i.i.i49
  %retval.0.i.i.i50 = phi i8 [ %12, %if.then.i4.i.i45 ], [ %call.i.i.i48, %if.end.i.i.i49 ], !dbg !1595
  %call1.i51 = tail call noundef nonnull align 8 dereferenceable(8) %"class.std::basic_ostream"* @_ZNSo3putEc(%"class.std::basic_ostream"* noundef nonnull align 8 dereferenceable(8) @_ZSt4cerr, i8 noundef signext %retval.0.i.i.i50), !dbg !1604
  call void @llvm.dbg.value(metadata %"class.std::basic_ostream"* %call1.i51, metadata !1380, metadata !DIExpression()), !dbg !1605
  %call.i.i52 = tail call noundef nonnull align 8 dereferenceable(8) %"class.std::basic_ostream"* @_ZNSo5flushEv(%"class.std::basic_ostream"* noundef nonnull align 8 dereferenceable(8) %call1.i51), !dbg !1607
  call void @llvm.dbg.value(metadata %"class.std::basic_ostream"* @_ZSt4cerr, metadata !1218, metadata !DIExpression()), !dbg !1608
  call void @llvm.dbg.value(metadata i8* getelementptr inbounds ([38 x i8], [38 x i8]* @.str.10, i64 0, i64 0), metadata !1227, metadata !DIExpression()), !dbg !1608
  %call1.i28 = tail call noundef nonnull align 8 dereferenceable(8) %"class.std::basic_ostream"* @_ZSt16__ostream_insertIcSt11char_traitsIcEERSt13basic_ostreamIT_T0_ES6_PKS3_l(%"class.std::basic_ostream"* noundef nonnull align 8 dereferenceable(8) @_ZSt4cerr, i8* noundef nonnull getelementptr inbounds ([38 x i8], [38 x i8]* @.str.10, i64 0, i64 0), i64 noundef 37), !dbg !1610
  call void @llvm.dbg.value(metadata %"class.std::basic_ostream"* @_ZSt4cerr, metadata !1291, metadata !DIExpression()), !dbg !1611
  call void @llvm.dbg.value(metadata %"class.std::basic_ostream"* @_ZSt4cerr, metadata !1307, metadata !DIExpression()), !dbg !1613
  %vtable.i54 = load i8*, i8** bitcast (%"class.std::basic_ostream"* @_ZSt4cerr to i8**), align 8, !dbg !1615, !tbaa !1316
  %vbase.offset.ptr.i55 = getelementptr i8, i8* %vtable.i54, i64 -24, !dbg !1615
  %15 = bitcast i8* %vbase.offset.ptr.i55 to i64*, !dbg !1615
  %vbase.offset.i56 = load i64, i64* %15, align 8, !dbg !1615
  %add.ptr.i57 = getelementptr inbounds i8, i8* bitcast (%"class.std::basic_ostream"* @_ZSt4cerr to i8*), i64 %vbase.offset.i56, !dbg !1615
  call void @llvm.dbg.value(metadata i8* %add.ptr.i57, metadata !1318, metadata !DIExpression()), !dbg !1616
  call void @llvm.dbg.value(metadata i8 10, metadata !1330, metadata !DIExpression()), !dbg !1616
  %_M_ctype.i.i58 = getelementptr inbounds i8, i8* %add.ptr.i57, i64 240, !dbg !1618
  %16 = bitcast i8* %_M_ctype.i.i58 to %"class.std::ctype"**, !dbg !1618
  %17 = load %"class.std::ctype"*, %"class.std::ctype"** %16, align 8, !dbg !1618, !tbaa !1335
  call void @llvm.dbg.value(metadata %"class.std::ctype"* %17, metadata !1339, metadata !DIExpression()), !dbg !1619
  %tobool.not.i.i.i59 = icmp eq %"class.std::ctype"* %17, null, !dbg !1621
  br i1 %tobool.not.i.i.i59, label %if.then.i.i.i60, label %_ZSt13__check_facetISt5ctypeIcEERKT_PS3_.exit.i.i63, !dbg !1622

if.then.i.i.i60:                                  ; preds = %_ZSt4endlIcSt11char_traitsIcEERSt13basic_ostreamIT_T0_ES6_.exit53
  tail call void @_ZSt16__throw_bad_castv() #20, !dbg !1623
  unreachable, !dbg !1623

_ZSt13__check_facetISt5ctypeIcEERKT_PS3_.exit.i.i63: ; preds = %_ZSt4endlIcSt11char_traitsIcEERSt13basic_ostreamIT_T0_ES6_.exit53
  call void @llvm.dbg.value(metadata %"class.std::ctype"* %17, metadata !1357, metadata !DIExpression()), !dbg !1624
  call void @llvm.dbg.value(metadata i8 10, metadata !1365, metadata !DIExpression()), !dbg !1624
  %_M_widen_ok.i.i.i61 = getelementptr inbounds %"class.std::ctype", %"class.std::ctype"* %17, i64 0, i32 8, !dbg !1626
  %18 = load i8, i8* %_M_widen_ok.i.i.i61, align 8, !dbg !1626, !tbaa !1370
  %tobool.not.i3.i.i62 = icmp eq i8 %18, 0, !dbg !1626
  br i1 %tobool.not.i3.i.i62, label %if.end.i.i.i69, label %if.then.i4.i.i65, !dbg !1627

if.then.i4.i.i65:                                 ; preds = %_ZSt13__check_facetISt5ctypeIcEERKT_PS3_.exit.i.i63
  %arrayidx.i.i.i64 = getelementptr inbounds %"class.std::ctype", %"class.std::ctype"* %17, i64 0, i32 9, i64 10, !dbg !1628
  %19 = load i8, i8* %arrayidx.i.i.i64, align 1, !dbg !1628, !tbaa !1374
  br label %_ZSt4endlIcSt11char_traitsIcEERSt13basic_ostreamIT_T0_ES6_.exit73, !dbg !1629

if.end.i.i.i69:                                   ; preds = %_ZSt13__check_facetISt5ctypeIcEERKT_PS3_.exit.i.i63
  tail call void @_ZNKSt5ctypeIcE13_M_widen_initEv(%"class.std::ctype"* noundef nonnull align 8 dereferenceable(570) %17), !dbg !1630
  %20 = bitcast %"class.std::ctype"* %17 to i8 (%"class.std::ctype"*, i8)***, !dbg !1631
  %vtable.i.i.i66 = load i8 (%"class.std::ctype"*, i8)**, i8 (%"class.std::ctype"*, i8)*** %20, align 8, !dbg !1631, !tbaa !1316
  %vfn.i.i.i67 = getelementptr inbounds i8 (%"class.std::ctype"*, i8)*, i8 (%"class.std::ctype"*, i8)** %vtable.i.i.i66, i64 6, !dbg !1631
  %21 = load i8 (%"class.std::ctype"*, i8)*, i8 (%"class.std::ctype"*, i8)** %vfn.i.i.i67, align 8, !dbg !1631
  %call.i.i.i68 = tail call noundef signext i8 %21(%"class.std::ctype"* noundef nonnull align 8 dereferenceable(570) %17, i8 noundef signext 10), !dbg !1631
  br label %_ZSt4endlIcSt11char_traitsIcEERSt13basic_ostreamIT_T0_ES6_.exit73, !dbg !1632

_ZSt4endlIcSt11char_traitsIcEERSt13basic_ostreamIT_T0_ES6_.exit73: ; preds = %if.then.i4.i.i65, %if.end.i.i.i69
  %retval.0.i.i.i70 = phi i8 [ %19, %if.then.i4.i.i65 ], [ %call.i.i.i68, %if.end.i.i.i69 ], !dbg !1624
  %call1.i71 = tail call noundef nonnull align 8 dereferenceable(8) %"class.std::basic_ostream"* @_ZNSo3putEc(%"class.std::basic_ostream"* noundef nonnull align 8 dereferenceable(8) @_ZSt4cerr, i8 noundef signext %retval.0.i.i.i70), !dbg !1633
  call void @llvm.dbg.value(metadata %"class.std::basic_ostream"* %call1.i71, metadata !1380, metadata !DIExpression()), !dbg !1634
  %call.i.i72 = tail call noundef nonnull align 8 dereferenceable(8) %"class.std::basic_ostream"* @_ZNSo5flushEv(%"class.std::basic_ostream"* noundef nonnull align 8 dereferenceable(8) %call1.i71), !dbg !1636
  br label %cleanup, !dbg !1637

if.end9:                                          ; preds = %if.then
  call void @llvm.dbg.value(metadata i32 %conv.i, metadata !1533, metadata !DIExpression()), !dbg !1536
  %cmp10 = icmp ugt i32 %argc, 2, !dbg !1638
  br i1 %cmp10, label %if.then11, label %if.end14, !dbg !1640

if.then11:                                        ; preds = %if.end9
  %arrayidx12 = getelementptr inbounds i8*, i8** %argv, i64 2, !dbg !1641
  %22 = load i8*, i8** %arrayidx12, align 8, !dbg !1641, !tbaa !1542
  call void @llvm.dbg.value(metadata i8* %22, metadata !128, metadata !DIExpression()) #19, !dbg !1643
  %call.i30 = tail call i64 @strtol(i8* nocapture noundef nonnull %22, i8** noundef null, i32 noundef 10) #19, !dbg !1645
  %conv.i31 = trunc i64 %call.i30 to i32, !dbg !1645
  call void @llvm.dbg.value(metadata i32 %conv.i31, metadata !1534, metadata !DIExpression()), !dbg !1536
  br label %if.end14, !dbg !1646

if.end14:                                         ; preds = %entry, %if.then11, %if.end9
  %n.076 = phi i32 [ %conv.i, %if.then11 ], [ %conv.i, %if.end9 ], [ 10000000, %entry ]
  %round.0 = phi i32 [ %conv.i31, %if.then11 ], [ 1, %if.end9 ], [ 1, %entry ], !dbg !1536
  call void @llvm.dbg.value(metadata i32 %round.0, metadata !1534, metadata !DIExpression()), !dbg !1536
  %call15 = tail call noundef i32 @_Z5qmainii(i32 noundef %n.076, i32 noundef %round.0), !dbg !1647
  call void @llvm.dbg.value(metadata i32 %call15, metadata !1535, metadata !DIExpression()), !dbg !1536
  br label %cleanup

cleanup:                                          ; preds = %if.end14, %_ZSt4endlIcSt11char_traitsIcEERSt13basic_ostreamIT_T0_ES6_.exit73
  %retval.0 = phi i32 [ 1, %_ZSt4endlIcSt11char_traitsIcEERSt13basic_ostreamIT_T0_ES6_.exit73 ], [ %call15, %if.end14 ], !dbg !1536
  ret i32 %retval.0, !dbg !1648
}

; Function Attrs: mustprogress nofree nounwind willreturn
declare dso_local i64 @strtol(i8* noundef readonly, i8** nocapture noundef, i32 noundef) local_unnamed_addr #14

; Function Attrs: nounwind
declare !dbg !1649 dso_local i32 @rand() local_unnamed_addr #1

declare dso_local noundef nonnull align 8 dereferenceable(8) %"class.std::basic_ostream"* @_ZSt16__ostream_insertIcSt11char_traitsIcEERSt13basic_ostreamIT_T0_ES6_PKS3_l(%"class.std::basic_ostream"* noundef nonnull align 8 dereferenceable(8), i8* noundef, i64 noundef) local_unnamed_addr #0

declare dso_local noundef nonnull align 8 dereferenceable(8) %"class.std::basic_ostream"* @_ZNSo3putEc(%"class.std::basic_ostream"* noundef nonnull align 8 dereferenceable(8), i8 noundef signext) local_unnamed_addr #0

declare dso_local noundef nonnull align 8 dereferenceable(8) %"class.std::basic_ostream"* @_ZNSo5flushEv(%"class.std::basic_ostream"* noundef nonnull align 8 dereferenceable(8)) local_unnamed_addr #0

; Function Attrs: noreturn
declare dso_local void @_ZSt16__throw_bad_castv() local_unnamed_addr #15

declare dso_local void @_ZNKSt5ctypeIcE13_M_widen_initEv(%"class.std::ctype"* noundef nonnull align 8 dereferenceable(570)) local_unnamed_addr #0

declare dso_local noundef nonnull align 8 dereferenceable(8) %"class.std::basic_ostream"* @_ZNSo9_M_insertIdEERSoT_(%"class.std::basic_ostream"* noundef nonnull align 8 dereferenceable(8), double noundef) local_unnamed_addr #0

; Function Attrs: uwtable
define internal void @_GLOBAL__sub_I_qsort.cpp() #16 section ".text.startup" !dbg !1650 {
entry:
  tail call void @_ZNSt8ios_base4InitC1Ev(%"class.std::ios_base::Init"* noundef nonnull align 1 dereferenceable(1) @_ZStL8__ioinit), !dbg !1652
  %0 = tail call i32 @__cxa_atexit(void (i8*)* bitcast (void (%"class.std::ios_base::Init"*)* @_ZNSt8ios_base4InitD1Ev to void (i8*)*), i8* getelementptr inbounds (%"class.std::ios_base::Init", %"class.std::ios_base::Init"* @_ZStL8__ioinit, i64 0, i32 0), i8* nonnull @__dso_handle) #19, !dbg !1656
  ret void
}

; Function Attrs: nofree nosync nounwind readnone speculatable willreturn
declare void @llvm.dbg.value(metadata, metadata, metadata) #17

; Function Attrs: nofree nosync nounwind readnone speculatable willreturn
declare i32 @llvm.smax.i32(i32, i32) #17

attributes #0 = { "frame-pointer"="none" "no-trapping-math"="true" "stack-protector-buffer-size"="8" "target-cpu"="x86-64" "target-features"="+cx8,+fxsr,+mmx,+sse,+sse2,+x87" "tune-cpu"="generic" }
attributes #1 = { nounwind "frame-pointer"="none" "no-trapping-math"="true" "stack-protector-buffer-size"="8" "target-cpu"="x86-64" "target-features"="+cx8,+fxsr,+mmx,+sse,+sse2,+x87" "tune-cpu"="generic" }
attributes #2 = { nofree nounwind }
attributes #3 = { mustprogress nofree noinline norecurse nosync nounwind readnone uwtable willreturn "frame-pointer"="none" "min-legal-vector-width"="0" "no-trapping-math"="true" "stack-protector-buffer-size"="8" "target-cpu"="x86-64" "target-features"="+cx8,+fxsr,+mmx,+sse,+sse2,+x87" "tune-cpu"="generic" }
attributes #4 = { argmemonly mustprogress nofree nosync nounwind willreturn }
attributes #5 = { mustprogress nofree nosync nounwind readnone speculatable willreturn }
attributes #6 = { argmemonly mustprogress nounwind willreturn }
attributes #7 = { argmemonly nounwind uwtable "frame-pointer"="none" "min-legal-vector-width"="0" "no-trapping-math"="true" "stack-protector-buffer-size"="8" "target-cpu"="x86-64" "target-features"="+cx8,+fxsr,+mmx,+sse,+sse2,+x87" "tune-cpu"="generic" }
attributes #8 = { argmemonly mustprogress nofree norecurse nosync nounwind readonly uwtable willreturn "frame-pointer"="none" "min-legal-vector-width"="0" "no-trapping-math"="true" "stack-protector-buffer-size"="8" "target-cpu"="x86-64" "target-features"="+cx8,+fxsr,+mmx,+sse,+sse2,+x87" "tune-cpu"="generic" }
attributes #9 = { mustprogress uwtable "frame-pointer"="none" "min-legal-vector-width"="0" "no-trapping-math"="true" "stack-protector-buffer-size"="8" "target-cpu"="x86-64" "target-features"="+cx8,+fxsr,+mmx,+sse,+sse2,+x87" "tune-cpu"="generic" }
attributes #10 = { nobuiltin allocsize(0) "frame-pointer"="none" "no-trapping-math"="true" "stack-protector-buffer-size"="8" "target-cpu"="x86-64" "target-features"="+cx8,+fxsr,+mmx,+sse,+sse2,+x87" "tune-cpu"="generic" }
attributes #11 = { nofree nounwind "frame-pointer"="none" "no-trapping-math"="true" "stack-protector-buffer-size"="8" "target-cpu"="x86-64" "target-features"="+cx8,+fxsr,+mmx,+sse,+sse2,+x87" "tune-cpu"="generic" }
attributes #12 = { nobuiltin nounwind "frame-pointer"="none" "no-trapping-math"="true" "stack-protector-buffer-size"="8" "target-cpu"="x86-64" "target-features"="+cx8,+fxsr,+mmx,+sse,+sse2,+x87" "tune-cpu"="generic" }
attributes #13 = { mustprogress norecurse uwtable "frame-pointer"="none" "min-legal-vector-width"="0" "no-trapping-math"="true" "stack-protector-buffer-size"="8" "target-cpu"="x86-64" "target-features"="+cx8,+fxsr,+mmx,+sse,+sse2,+x87" "tune-cpu"="generic" }
attributes #14 = { mustprogress nofree nounwind willreturn "frame-pointer"="none" "no-trapping-math"="true" "stack-protector-buffer-size"="8" "target-cpu"="x86-64" "target-features"="+cx8,+fxsr,+mmx,+sse,+sse2,+x87" "tune-cpu"="generic" }
attributes #15 = { noreturn "frame-pointer"="none" "no-trapping-math"="true" "stack-protector-buffer-size"="8" "target-cpu"="x86-64" "target-features"="+cx8,+fxsr,+mmx,+sse,+sse2,+x87" "tune-cpu"="generic" }
attributes #16 = { uwtable "frame-pointer"="none" "min-legal-vector-width"="0" "no-trapping-math"="true" "stack-protector-buffer-size"="8" "target-cpu"="x86-64" "target-features"="+cx8,+fxsr,+mmx,+sse,+sse2,+x87" "tune-cpu"="generic" }
attributes #17 = { nofree nosync nounwind readnone speculatable willreturn }
attributes #18 = { builtin allocsize(0) }
attributes #19 = { nounwind }
attributes #20 = { noreturn }
attributes #21 = { builtin nounwind }

!llvm.dbg.cu = !{!7}
!llvm.module.flags = !{!940, !941, !942, !943}
!llvm.ident = !{!944}

!0 = !DIGlobalVariableExpression(var: !1, expr: !DIExpression())
!1 = distinct !DIGlobalVariable(name: "__ioinit", linkageName: "_ZStL8__ioinit", scope: !2, file: !3, line: 74, type: !4, isLocal: true, isDefinition: true)
!2 = !DINamespace(name: "std", scope: null)
!3 = !DIFile(filename: "/opt/rh/devtoolset-10/root/usr/lib/gcc/x86_64-redhat-linux/10/../../../../include/c++/10/iostream", directory: "")
!4 = !DICompositeType(tag: DW_TAG_class_type, name: "Init", scope: !6, file: !5, line: 626, size: 8, flags: DIFlagFwdDecl | DIFlagNonTrivial, identifier: "_ZTSNSt8ios_base4InitE")
!5 = !DIFile(filename: "/opt/rh/devtoolset-10/root/usr/lib/gcc/x86_64-redhat-linux/10/../../../../include/c++/10/bits/ios_base.h", directory: "")
!6 = !DICompositeType(tag: DW_TAG_class_type, name: "ios_base", scope: !2, file: !5, line: 228, size: 1728, flags: DIFlagFwdDecl | DIFlagNonTrivial, identifier: "_ZTSSt8ios_base")
!7 = distinct !DICompileUnit(language: DW_LANG_C_plus_plus_14, file: !8, producer: "clang version 14.0.6 (/afs/ece/project/seth_group/ziqiliu/uli-opencilk-project/clang f7f98d0501c44ae6a93ca00ec068035f8853103e)", isOptimized: true, runtimeVersion: 0, emissionKind: FullDebug, enums: !9, retainedTypes: !20, globals: !82, imports: !83, splitDebugInlining: false, nameTableKind: None)
!8 = !DIFile(filename: "qsort.cpp", directory: "/afs/ece/project/seth_group/ziqiliu/test/cilk5", checksumkind: CSK_MD5, checksum: "f72e664f0e46d2748977b0ff8ed8ab58")
!9 = !{!10}
!10 = !DICompositeType(tag: DW_TAG_enumeration_type, name: "_Ios_Iostate", scope: !2, file: !5, line: 153, baseType: !11, size: 32, elements: !12, identifier: "_ZTSSt12_Ios_Iostate")
!11 = !DIBasicType(name: "int", size: 32, encoding: DW_ATE_signed)
!12 = !{!13, !14, !15, !16, !17, !18, !19}
!13 = !DIEnumerator(name: "_S_goodbit", value: 0)
!14 = !DIEnumerator(name: "_S_badbit", value: 1)
!15 = !DIEnumerator(name: "_S_eofbit", value: 2)
!16 = !DIEnumerator(name: "_S_failbit", value: 4)
!17 = !DIEnumerator(name: "_S_ios_iostate_end", value: 65536)
!18 = !DIEnumerator(name: "_S_ios_iostate_max", value: 2147483647)
!19 = !DIEnumerator(name: "_S_ios_iostate_min", value: -2147483648)
!20 = !{!11, !21, !24, !25, !10, !30, !31, !6}
!21 = !DIDerivedType(tag: DW_TAG_pointer_type, baseType: !22, size: 64)
!22 = !DIDerivedType(tag: DW_TAG_pointer_type, baseType: !23, size: 64)
!23 = !DIBasicType(name: "char", size: 8, encoding: DW_ATE_signed_char)
!24 = !DIBasicType(name: "bool", size: 8, encoding: DW_ATE_boolean)
!25 = !DIDerivedType(tag: DW_TAG_typedef, name: "streamsize", scope: !2, file: !26, line: 98, baseType: !27)
!26 = !DIFile(filename: "/opt/rh/devtoolset-10/root/usr/lib/gcc/x86_64-redhat-linux/10/../../../../include/c++/10/bits/postypes.h", directory: "")
!27 = !DIDerivedType(tag: DW_TAG_typedef, name: "ptrdiff_t", scope: !2, file: !28, line: 2364, baseType: !29)
!28 = !DIFile(filename: "/opt/rh/devtoolset-10/root/usr/lib/gcc/x86_64-redhat-linux/10/../../../../include/c++/10/x86_64-redhat-linux/bits/c++config.h", directory: "", checksumkind: CSK_MD5, checksum: "fa710899d3feabea965bc0d2fdab67b6")
!29 = !DIBasicType(name: "long", size: 64, encoding: DW_ATE_signed)
!30 = !DIBasicType(name: "unsigned char", size: 8, encoding: DW_ATE_unsigned_char)
!31 = distinct !DICompositeType(tag: DW_TAG_class_type, name: "binder2nd<std::less<int> >", scope: !2, file: !32, line: 143, size: 64, flags: DIFlagTypePassByValue | DIFlagNonTrivial, elements: !33, templateParams: !80, identifier: "_ZTSSt9binder2ndISt4lessIiEE")
!32 = !DIFile(filename: "/opt/rh/devtoolset-10/root/usr/lib/gcc/x86_64-redhat-linux/10/../../../../include/c++/10/backward/binders.h", directory: "", checksumkind: CSK_MD5, checksum: "e9f460a762e1c4ab8196c03532a7568e")
!33 = !{!34, !41, !58, !60, !67, !76}
!34 = !DIDerivedType(tag: DW_TAG_inheritance, scope: !31, baseType: !35, flags: DIFlagPublic, extraData: i32 0)
!35 = distinct !DICompositeType(tag: DW_TAG_structure_type, name: "unary_function<int, bool>", scope: !2, file: !36, line: 105, size: 8, flags: DIFlagTypePassByValue, elements: !37, templateParams: !38, identifier: "_ZTSSt14unary_functionIibE")
!36 = !DIFile(filename: "/opt/rh/devtoolset-10/root/usr/lib/gcc/x86_64-redhat-linux/10/../../../../include/c++/10/bits/stl_function.h", directory: "", checksumkind: CSK_MD5, checksum: "f87fbc5d632d6a84307ec8d2ada3d6c3")
!37 = !{}
!38 = !{!39, !40}
!39 = !DITemplateTypeParameter(name: "_Arg", type: !11)
!40 = !DITemplateTypeParameter(name: "_Result", type: !24)
!41 = !DIDerivedType(tag: DW_TAG_member, name: "op", scope: !31, file: !32, line: 148, baseType: !42, size: 8, flags: DIFlagProtected)
!42 = distinct !DICompositeType(tag: DW_TAG_structure_type, name: "less<int>", scope: !2, file: !36, line: 381, size: 8, flags: DIFlagTypePassByValue, elements: !43, templateParams: !56, identifier: "_ZTSSt4lessIiE")
!43 = !{!44, !49}
!44 = !DIDerivedType(tag: DW_TAG_inheritance, scope: !42, baseType: !45, extraData: i32 0)
!45 = distinct !DICompositeType(tag: DW_TAG_structure_type, name: "binary_function<int, int, bool>", scope: !2, file: !36, line: 118, size: 8, flags: DIFlagTypePassByValue, elements: !37, templateParams: !46, identifier: "_ZTSSt15binary_functionIiibE")
!46 = !{!47, !48, !40}
!47 = !DITemplateTypeParameter(name: "_Arg1", type: !11)
!48 = !DITemplateTypeParameter(name: "_Arg2", type: !11)
!49 = !DISubprogram(name: "operator()", linkageName: "_ZNKSt4lessIiEclERKiS2_", scope: !42, file: !36, line: 385, type: !50, scopeLine: 385, flags: DIFlagPrototyped, spFlags: DISPFlagOptimized)
!50 = !DISubroutineType(types: !51)
!51 = !{!24, !52, !54, !54}
!52 = !DIDerivedType(tag: DW_TAG_pointer_type, baseType: !53, size: 64, flags: DIFlagArtificial | DIFlagObjectPointer)
!53 = !DIDerivedType(tag: DW_TAG_const_type, baseType: !42)
!54 = !DIDerivedType(tag: DW_TAG_reference_type, baseType: !55, size: 64)
!55 = !DIDerivedType(tag: DW_TAG_const_type, baseType: !11)
!56 = !{!57}
!57 = !DITemplateTypeParameter(name: "_Tp", type: !11)
!58 = !DIDerivedType(tag: DW_TAG_member, name: "value", scope: !31, file: !32, line: 149, baseType: !59, size: 32, offset: 32, flags: DIFlagProtected)
!59 = !DIDerivedType(tag: DW_TAG_typedef, name: "second_argument_type", scope: !45, file: !36, line: 124, baseType: !11)
!60 = !DISubprogram(name: "binder2nd", scope: !31, file: !32, line: 152, type: !61, scopeLine: 152, flags: DIFlagPublic | DIFlagPrototyped, spFlags: DISPFlagOptimized)
!61 = !DISubroutineType(types: !62)
!62 = !{null, !63, !64, !65}
!63 = !DIDerivedType(tag: DW_TAG_pointer_type, baseType: !31, size: 64, flags: DIFlagArtificial | DIFlagObjectPointer)
!64 = !DIDerivedType(tag: DW_TAG_reference_type, baseType: !53, size: 64)
!65 = !DIDerivedType(tag: DW_TAG_reference_type, baseType: !66, size: 64)
!66 = !DIDerivedType(tag: DW_TAG_const_type, baseType: !59)
!67 = !DISubprogram(name: "operator()", linkageName: "_ZNKSt9binder2ndISt4lessIiEEclERKi", scope: !31, file: !32, line: 157, type: !68, scopeLine: 157, flags: DIFlagPublic | DIFlagPrototyped, spFlags: DISPFlagOptimized)
!68 = !DISubroutineType(types: !69)
!69 = !{!70, !71, !73}
!70 = !DIDerivedType(tag: DW_TAG_typedef, name: "result_type", scope: !45, file: !36, line: 127, baseType: !24)
!71 = !DIDerivedType(tag: DW_TAG_pointer_type, baseType: !72, size: 64, flags: DIFlagArtificial | DIFlagObjectPointer)
!72 = !DIDerivedType(tag: DW_TAG_const_type, baseType: !31)
!73 = !DIDerivedType(tag: DW_TAG_reference_type, baseType: !74, size: 64)
!74 = !DIDerivedType(tag: DW_TAG_const_type, baseType: !75)
!75 = !DIDerivedType(tag: DW_TAG_typedef, name: "first_argument_type", scope: !45, file: !36, line: 121, baseType: !11)
!76 = !DISubprogram(name: "operator()", linkageName: "_ZNKSt9binder2ndISt4lessIiEEclERi", scope: !31, file: !32, line: 163, type: !77, scopeLine: 163, flags: DIFlagPublic | DIFlagPrototyped, spFlags: DISPFlagOptimized)
!77 = !DISubroutineType(types: !78)
!78 = !{!70, !71, !79}
!79 = !DIDerivedType(tag: DW_TAG_reference_type, baseType: !75, size: 64)
!80 = !{!81}
!81 = !DITemplateTypeParameter(name: "_Operation", type: !42)
!82 = !{!0}
!83 = !{!84, !88, !94, !98, !104, !108, !113, !115, !123, !129, !133, !147, !151, !155, !159, !163, !167, !171, !175, !179, !183, !191, !195, !199, !201, !205, !209, !214, !219, !223, !227, !229, !237, !241, !249, !251, !255, !259, !263, !267, !272, !277, !282, !283, !284, !285, !287, !288, !289, !290, !291, !292, !293, !297, !301, !317, !319, !323, !378, !383, !387, !391, !395, !399, !401, !403, !407, !413, !417, !423, !429, !431, !435, !439, !443, !447, !459, !461, !465, !469, !473, !475, !479, !483, !487, !489, !491, !495, !503, !507, !511, !515, !517, !523, !525, !531, !535, !539, !543, !547, !551, !555, !557, !559, !563, !567, !571, !573, !577, !581, !583, !585, !589, !593, !597, !601, !602, !603, !604, !605, !606, !607, !608, !609, !610, !611, !615, !618, !620, !622, !625, !627, !629, !631, !633, !635, !637, !639, !641, !643, !645, !647, !649, !651, !653, !655, !657, !659, !661, !663, !665, !667, !669, !671, !675, !679, !684, !688, !690, !692, !694, !696, !698, !700, !702, !704, !706, !708, !710, !712, !714, !717, !722, !727, !731, !733, !735, !737, !739, !746, !750, !754, !758, !762, !766, !771, !775, !777, !781, !787, !791, !796, !798, !801, !805, !809, !811, !813, !815, !817, !821, !823, !825, !829, !833, !837, !841, !845, !849, !851, !855, !859, !863, !867, !869, !871, !875, !879, !880, !881, !882, !883, !884, !891, !893, !894, !896, !898, !900, !902, !906, !908, !910, !912, !914, !916, !918, !920, !922, !926, !930, !932, !936}
!84 = !DIImportedEntity(tag: DW_TAG_imported_module, scope: !85, entity: !86, file: !87, line: 58)
!85 = !DINamespace(name: "__gnu_debug", scope: null)
!86 = !DINamespace(name: "__debug", scope: !2)
!87 = !DIFile(filename: "/opt/rh/devtoolset-10/root/usr/lib/gcc/x86_64-redhat-linux/10/../../../../include/c++/10/debug/debug.h", directory: "", checksumkind: CSK_MD5, checksum: "c69f68f2d2cbac034a41bb7ce5c36465")
!88 = !DIImportedEntity(tag: DW_TAG_imported_declaration, scope: !2, entity: !89, file: !93, line: 52)
!89 = !DISubprogram(name: "abs", scope: !90, file: !90, line: 770, type: !91, flags: DIFlagPrototyped, spFlags: DISPFlagOptimized)
!90 = !DIFile(filename: "/usr/include/stdlib.h", directory: "", checksumkind: CSK_MD5, checksum: "f7a1412d75d9e3df251dfc21b02d59ef")
!91 = !DISubroutineType(types: !92)
!92 = !{!11, !11}
!93 = !DIFile(filename: "/opt/rh/devtoolset-10/root/usr/lib/gcc/x86_64-redhat-linux/10/../../../../include/c++/10/bits/std_abs.h", directory: "")
!94 = !DIImportedEntity(tag: DW_TAG_imported_declaration, scope: !2, entity: !95, file: !97, line: 127)
!95 = !DIDerivedType(tag: DW_TAG_typedef, name: "div_t", file: !90, line: 101, baseType: !96)
!96 = !DICompositeType(tag: DW_TAG_structure_type, file: !90, line: 97, size: 64, flags: DIFlagFwdDecl, identifier: "_ZTS5div_t")
!97 = !DIFile(filename: "/opt/rh/devtoolset-10/root/usr/lib/gcc/x86_64-redhat-linux/10/../../../../include/c++/10/cstdlib", directory: "")
!98 = !DIImportedEntity(tag: DW_TAG_imported_declaration, scope: !2, entity: !99, file: !97, line: 128)
!99 = !DIDerivedType(tag: DW_TAG_typedef, name: "ldiv_t", file: !90, line: 109, baseType: !100)
!100 = distinct !DICompositeType(tag: DW_TAG_structure_type, file: !90, line: 105, size: 128, flags: DIFlagTypePassByValue, elements: !101, identifier: "_ZTS6ldiv_t")
!101 = !{!102, !103}
!102 = !DIDerivedType(tag: DW_TAG_member, name: "quot", scope: !100, file: !90, line: 107, baseType: !29, size: 64)
!103 = !DIDerivedType(tag: DW_TAG_member, name: "rem", scope: !100, file: !90, line: 108, baseType: !29, size: 64, offset: 64)
!104 = !DIImportedEntity(tag: DW_TAG_imported_declaration, scope: !2, entity: !105, file: !97, line: 130)
!105 = !DISubprogram(name: "abort", scope: !90, file: !90, line: 514, type: !106, flags: DIFlagPrototyped | DIFlagNoReturn, spFlags: DISPFlagOptimized)
!106 = !DISubroutineType(types: !107)
!107 = !{null}
!108 = !DIImportedEntity(tag: DW_TAG_imported_declaration, scope: !2, entity: !109, file: !97, line: 134)
!109 = !DISubprogram(name: "atexit", scope: !90, file: !90, line: 518, type: !110, flags: DIFlagPrototyped, spFlags: DISPFlagOptimized)
!110 = !DISubroutineType(types: !111)
!111 = !{!11, !112}
!112 = !DIDerivedType(tag: DW_TAG_pointer_type, baseType: !106, size: 64)
!113 = !DIImportedEntity(tag: DW_TAG_imported_declaration, scope: !2, entity: !114, file: !97, line: 137)
!114 = !DISubprogram(name: "at_quick_exit", scope: !90, file: !90, line: 523, type: !110, flags: DIFlagPrototyped, spFlags: DISPFlagOptimized)
!115 = !DIImportedEntity(tag: DW_TAG_imported_declaration, scope: !2, entity: !116, file: !97, line: 140)
!116 = !DISubprogram(name: "atof", scope: !117, file: !117, line: 26, type: !118, flags: DIFlagPrototyped, spFlags: DISPFlagOptimized)
!117 = !DIFile(filename: "/usr/include/bits/stdlib-float.h", directory: "", checksumkind: CSK_MD5, checksum: "4d8319456d5af4c05d02ff17edfe1b26")
!118 = !DISubroutineType(types: !119)
!119 = !{!120, !121}
!120 = !DIBasicType(name: "double", size: 64, encoding: DW_ATE_float)
!121 = !DIDerivedType(tag: DW_TAG_pointer_type, baseType: !122, size: 64)
!122 = !DIDerivedType(tag: DW_TAG_const_type, baseType: !23)
!123 = !DIImportedEntity(tag: DW_TAG_imported_declaration, scope: !2, entity: !124, file: !97, line: 141)
!124 = distinct !DISubprogram(name: "atoi", scope: !90, file: !90, line: 278, type: !125, scopeLine: 279, flags: DIFlagPrototyped | DIFlagAllCallsDescribed, spFlags: DISPFlagDefinition | DISPFlagOptimized, unit: !7, retainedNodes: !127)
!125 = !DISubroutineType(types: !126)
!126 = !{!11, !121}
!127 = !{!128}
!128 = !DILocalVariable(name: "__nptr", arg: 1, scope: !124, file: !90, line: 278, type: !121)
!129 = !DIImportedEntity(tag: DW_TAG_imported_declaration, scope: !2, entity: !130, file: !97, line: 142)
!130 = !DISubprogram(name: "atol", scope: !90, file: !90, line: 283, type: !131, flags: DIFlagPrototyped, spFlags: DISPFlagOptimized)
!131 = !DISubroutineType(types: !132)
!132 = !{!29, !121}
!133 = !DIImportedEntity(tag: DW_TAG_imported_declaration, scope: !2, entity: !134, file: !97, line: 143)
!134 = !DISubprogram(name: "bsearch", scope: !90, file: !90, line: 754, type: !135, flags: DIFlagPrototyped, spFlags: DISPFlagOptimized)
!135 = !DISubroutineType(types: !136)
!136 = !{!137, !138, !138, !140, !140, !143}
!137 = !DIDerivedType(tag: DW_TAG_pointer_type, baseType: null, size: 64)
!138 = !DIDerivedType(tag: DW_TAG_pointer_type, baseType: !139, size: 64)
!139 = !DIDerivedType(tag: DW_TAG_const_type, baseType: null)
!140 = !DIDerivedType(tag: DW_TAG_typedef, name: "size_t", file: !141, line: 46, baseType: !142)
!141 = !DIFile(filename: "ece.cmu.edu/project/seth_group/ziqiliu/uli-opencilk-project/build/lib/clang/14.0.6/include/stddef.h", directory: "/afs", checksumkind: CSK_MD5, checksum: "2499dd2361b915724b073282bea3a7bc")
!142 = !DIBasicType(name: "unsigned long", size: 64, encoding: DW_ATE_unsigned)
!143 = !DIDerivedType(tag: DW_TAG_typedef, name: "__compar_fn_t", file: !90, line: 741, baseType: !144)
!144 = !DIDerivedType(tag: DW_TAG_pointer_type, baseType: !145, size: 64)
!145 = !DISubroutineType(types: !146)
!146 = !{!11, !138, !138}
!147 = !DIImportedEntity(tag: DW_TAG_imported_declaration, scope: !2, entity: !148, file: !97, line: 144)
!148 = !DISubprogram(name: "calloc", scope: !90, file: !90, line: 467, type: !149, flags: DIFlagPrototyped, spFlags: DISPFlagOptimized)
!149 = !DISubroutineType(types: !150)
!150 = !{!137, !140, !140}
!151 = !DIImportedEntity(tag: DW_TAG_imported_declaration, scope: !2, entity: !152, file: !97, line: 145)
!152 = !DISubprogram(name: "div", scope: !90, file: !90, line: 784, type: !153, flags: DIFlagPrototyped, spFlags: DISPFlagOptimized)
!153 = !DISubroutineType(types: !154)
!154 = !{!95, !11, !11}
!155 = !DIImportedEntity(tag: DW_TAG_imported_declaration, scope: !2, entity: !156, file: !97, line: 146)
!156 = !DISubprogram(name: "exit", scope: !90, file: !90, line: 542, type: !157, flags: DIFlagPrototyped | DIFlagNoReturn, spFlags: DISPFlagOptimized)
!157 = !DISubroutineType(types: !158)
!158 = !{null, !11}
!159 = !DIImportedEntity(tag: DW_TAG_imported_declaration, scope: !2, entity: !160, file: !97, line: 147)
!160 = !DISubprogram(name: "free", scope: !90, file: !90, line: 482, type: !161, flags: DIFlagPrototyped, spFlags: DISPFlagOptimized)
!161 = !DISubroutineType(types: !162)
!162 = !{null, !137}
!163 = !DIImportedEntity(tag: DW_TAG_imported_declaration, scope: !2, entity: !164, file: !97, line: 148)
!164 = !DISubprogram(name: "getenv", scope: !90, file: !90, line: 563, type: !165, flags: DIFlagPrototyped, spFlags: DISPFlagOptimized)
!165 = !DISubroutineType(types: !166)
!166 = !{!22, !121}
!167 = !DIImportedEntity(tag: DW_TAG_imported_declaration, scope: !2, entity: !168, file: !97, line: 149)
!168 = !DISubprogram(name: "labs", scope: !90, file: !90, line: 771, type: !169, flags: DIFlagPrototyped, spFlags: DISPFlagOptimized)
!169 = !DISubroutineType(types: !170)
!170 = !{!29, !29}
!171 = !DIImportedEntity(tag: DW_TAG_imported_declaration, scope: !2, entity: !172, file: !97, line: 150)
!172 = !DISubprogram(name: "ldiv", scope: !90, file: !90, line: 786, type: !173, flags: DIFlagPrototyped, spFlags: DISPFlagOptimized)
!173 = !DISubroutineType(types: !174)
!174 = !{!99, !29, !29}
!175 = !DIImportedEntity(tag: DW_TAG_imported_declaration, scope: !2, entity: !176, file: !97, line: 151)
!176 = !DISubprogram(name: "malloc", scope: !90, file: !90, line: 465, type: !177, flags: DIFlagPrototyped, spFlags: DISPFlagOptimized)
!177 = !DISubroutineType(types: !178)
!178 = !{!137, !140}
!179 = !DIImportedEntity(tag: DW_TAG_imported_declaration, scope: !2, entity: !180, file: !97, line: 153)
!180 = !DISubprogram(name: "mblen", scope: !90, file: !90, line: 859, type: !181, flags: DIFlagPrototyped, spFlags: DISPFlagOptimized)
!181 = !DISubroutineType(types: !182)
!182 = !{!11, !121, !140}
!183 = !DIImportedEntity(tag: DW_TAG_imported_declaration, scope: !2, entity: !184, file: !97, line: 154)
!184 = !DISubprogram(name: "mbstowcs", scope: !90, file: !90, line: 870, type: !185, flags: DIFlagPrototyped, spFlags: DISPFlagOptimized)
!185 = !DISubroutineType(types: !186)
!186 = !{!140, !187, !190, !140}
!187 = !DIDerivedType(tag: DW_TAG_restrict_type, baseType: !188)
!188 = !DIDerivedType(tag: DW_TAG_pointer_type, baseType: !189, size: 64)
!189 = !DIBasicType(name: "wchar_t", size: 32, encoding: DW_ATE_signed)
!190 = !DIDerivedType(tag: DW_TAG_restrict_type, baseType: !121)
!191 = !DIImportedEntity(tag: DW_TAG_imported_declaration, scope: !2, entity: !192, file: !97, line: 155)
!192 = !DISubprogram(name: "mbtowc", scope: !90, file: !90, line: 862, type: !193, flags: DIFlagPrototyped, spFlags: DISPFlagOptimized)
!193 = !DISubroutineType(types: !194)
!194 = !{!11, !187, !190, !140}
!195 = !DIImportedEntity(tag: DW_TAG_imported_declaration, scope: !2, entity: !196, file: !97, line: 157)
!196 = !DISubprogram(name: "qsort", scope: !90, file: !90, line: 760, type: !197, flags: DIFlagPrototyped, spFlags: DISPFlagOptimized)
!197 = !DISubroutineType(types: !198)
!198 = !{null, !137, !140, !140, !143}
!199 = !DIImportedEntity(tag: DW_TAG_imported_declaration, scope: !2, entity: !200, file: !97, line: 160)
!200 = !DISubprogram(name: "quick_exit", scope: !90, file: !90, line: 548, type: !157, flags: DIFlagPrototyped | DIFlagNoReturn, spFlags: DISPFlagOptimized)
!201 = !DIImportedEntity(tag: DW_TAG_imported_declaration, scope: !2, entity: !202, file: !97, line: 163)
!202 = !DISubprogram(name: "rand", scope: !90, file: !90, line: 374, type: !203, flags: DIFlagPrototyped, spFlags: DISPFlagOptimized)
!203 = !DISubroutineType(types: !204)
!204 = !{!11}
!205 = !DIImportedEntity(tag: DW_TAG_imported_declaration, scope: !2, entity: !206, file: !97, line: 164)
!206 = !DISubprogram(name: "realloc", scope: !90, file: !90, line: 479, type: !207, flags: DIFlagPrototyped, spFlags: DISPFlagOptimized)
!207 = !DISubroutineType(types: !208)
!208 = !{!137, !137, !140}
!209 = !DIImportedEntity(tag: DW_TAG_imported_declaration, scope: !2, entity: !210, file: !97, line: 165)
!210 = !DISubprogram(name: "srand", scope: !90, file: !90, line: 376, type: !211, flags: DIFlagPrototyped, spFlags: DISPFlagOptimized)
!211 = !DISubroutineType(types: !212)
!212 = !{null, !213}
!213 = !DIBasicType(name: "unsigned int", size: 32, encoding: DW_ATE_unsigned)
!214 = !DIImportedEntity(tag: DW_TAG_imported_declaration, scope: !2, entity: !215, file: !97, line: 166)
!215 = !DISubprogram(name: "strtod", scope: !90, file: !90, line: 164, type: !216, flags: DIFlagPrototyped, spFlags: DISPFlagOptimized)
!216 = !DISubroutineType(types: !217)
!217 = !{!120, !190, !218}
!218 = !DIDerivedType(tag: DW_TAG_restrict_type, baseType: !21)
!219 = !DIImportedEntity(tag: DW_TAG_imported_declaration, scope: !2, entity: !220, file: !97, line: 167)
!220 = !DISubprogram(name: "strtol", scope: !90, file: !90, line: 183, type: !221, flags: DIFlagPrototyped, spFlags: DISPFlagOptimized)
!221 = !DISubroutineType(types: !222)
!222 = !{!29, !190, !218, !11}
!223 = !DIImportedEntity(tag: DW_TAG_imported_declaration, scope: !2, entity: !224, file: !97, line: 168)
!224 = !DISubprogram(name: "strtoul", scope: !90, file: !90, line: 187, type: !225, flags: DIFlagPrototyped, spFlags: DISPFlagOptimized)
!225 = !DISubroutineType(types: !226)
!226 = !{!142, !190, !218, !11}
!227 = !DIImportedEntity(tag: DW_TAG_imported_declaration, scope: !2, entity: !228, file: !97, line: 169)
!228 = !DISubprogram(name: "system", scope: !90, file: !90, line: 716, type: !125, flags: DIFlagPrototyped, spFlags: DISPFlagOptimized)
!229 = !DIImportedEntity(tag: DW_TAG_imported_declaration, scope: !2, entity: !230, file: !97, line: 171)
!230 = !DISubprogram(name: "wcstombs", scope: !90, file: !90, line: 873, type: !231, flags: DIFlagPrototyped, spFlags: DISPFlagOptimized)
!231 = !DISubroutineType(types: !232)
!232 = !{!140, !233, !234, !140}
!233 = !DIDerivedType(tag: DW_TAG_restrict_type, baseType: !22)
!234 = !DIDerivedType(tag: DW_TAG_restrict_type, baseType: !235)
!235 = !DIDerivedType(tag: DW_TAG_pointer_type, baseType: !236, size: 64)
!236 = !DIDerivedType(tag: DW_TAG_const_type, baseType: !189)
!237 = !DIImportedEntity(tag: DW_TAG_imported_declaration, scope: !2, entity: !238, file: !97, line: 172)
!238 = !DISubprogram(name: "wctomb", scope: !90, file: !90, line: 866, type: !239, flags: DIFlagPrototyped, spFlags: DISPFlagOptimized)
!239 = !DISubroutineType(types: !240)
!240 = !{!11, !22, !189}
!241 = !DIImportedEntity(tag: DW_TAG_imported_declaration, scope: !242, entity: !243, file: !97, line: 200)
!242 = !DINamespace(name: "__gnu_cxx", scope: null)
!243 = !DIDerivedType(tag: DW_TAG_typedef, name: "lldiv_t", file: !90, line: 121, baseType: !244)
!244 = distinct !DICompositeType(tag: DW_TAG_structure_type, file: !90, line: 117, size: 128, flags: DIFlagTypePassByValue, elements: !245, identifier: "_ZTS7lldiv_t")
!245 = !{!246, !248}
!246 = !DIDerivedType(tag: DW_TAG_member, name: "quot", scope: !244, file: !90, line: 119, baseType: !247, size: 64)
!247 = !DIBasicType(name: "long long", size: 64, encoding: DW_ATE_signed)
!248 = !DIDerivedType(tag: DW_TAG_member, name: "rem", scope: !244, file: !90, line: 120, baseType: !247, size: 64, offset: 64)
!249 = !DIImportedEntity(tag: DW_TAG_imported_declaration, scope: !242, entity: !250, file: !97, line: 206)
!250 = !DISubprogram(name: "_Exit", scope: !90, file: !90, line: 556, type: !157, flags: DIFlagPrototyped | DIFlagNoReturn, spFlags: DISPFlagOptimized)
!251 = !DIImportedEntity(tag: DW_TAG_imported_declaration, scope: !242, entity: !252, file: !97, line: 210)
!252 = !DISubprogram(name: "llabs", scope: !90, file: !90, line: 775, type: !253, flags: DIFlagPrototyped, spFlags: DISPFlagOptimized)
!253 = !DISubroutineType(types: !254)
!254 = !{!247, !247}
!255 = !DIImportedEntity(tag: DW_TAG_imported_declaration, scope: !242, entity: !256, file: !97, line: 216)
!256 = !DISubprogram(name: "lldiv", scope: !90, file: !90, line: 792, type: !257, flags: DIFlagPrototyped, spFlags: DISPFlagOptimized)
!257 = !DISubroutineType(types: !258)
!258 = !{!243, !247, !247}
!259 = !DIImportedEntity(tag: DW_TAG_imported_declaration, scope: !242, entity: !260, file: !97, line: 227)
!260 = !DISubprogram(name: "atoll", scope: !90, file: !90, line: 292, type: !261, flags: DIFlagPrototyped, spFlags: DISPFlagOptimized)
!261 = !DISubroutineType(types: !262)
!262 = !{!247, !121}
!263 = !DIImportedEntity(tag: DW_TAG_imported_declaration, scope: !242, entity: !264, file: !97, line: 228)
!264 = !DISubprogram(name: "strtoll", scope: !90, file: !90, line: 209, type: !265, flags: DIFlagPrototyped, spFlags: DISPFlagOptimized)
!265 = !DISubroutineType(types: !266)
!266 = !{!247, !190, !218, !11}
!267 = !DIImportedEntity(tag: DW_TAG_imported_declaration, scope: !242, entity: !268, file: !97, line: 229)
!268 = !DISubprogram(name: "strtoull", scope: !90, file: !90, line: 214, type: !269, flags: DIFlagPrototyped, spFlags: DISPFlagOptimized)
!269 = !DISubroutineType(types: !270)
!270 = !{!271, !190, !218, !11}
!271 = !DIBasicType(name: "unsigned long long", size: 64, encoding: DW_ATE_unsigned)
!272 = !DIImportedEntity(tag: DW_TAG_imported_declaration, scope: !242, entity: !273, file: !97, line: 231)
!273 = !DISubprogram(name: "strtof", scope: !90, file: !90, line: 172, type: !274, flags: DIFlagPrototyped, spFlags: DISPFlagOptimized)
!274 = !DISubroutineType(types: !275)
!275 = !{!276, !190, !218}
!276 = !DIBasicType(name: "float", size: 32, encoding: DW_ATE_float)
!277 = !DIImportedEntity(tag: DW_TAG_imported_declaration, scope: !242, entity: !278, file: !97, line: 232)
!278 = !DISubprogram(name: "strtold", scope: !90, file: !90, line: 175, type: !279, flags: DIFlagPrototyped, spFlags: DISPFlagOptimized)
!279 = !DISubroutineType(types: !280)
!280 = !{!281, !190, !218}
!281 = !DIBasicType(name: "long double", size: 128, encoding: DW_ATE_float)
!282 = !DIImportedEntity(tag: DW_TAG_imported_declaration, scope: !2, entity: !243, file: !97, line: 240)
!283 = !DIImportedEntity(tag: DW_TAG_imported_declaration, scope: !2, entity: !250, file: !97, line: 242)
!284 = !DIImportedEntity(tag: DW_TAG_imported_declaration, scope: !2, entity: !252, file: !97, line: 244)
!285 = !DIImportedEntity(tag: DW_TAG_imported_declaration, scope: !2, entity: !286, file: !97, line: 245)
!286 = !DISubprogram(name: "div", linkageName: "_ZN9__gnu_cxx3divExx", scope: !242, file: !97, line: 213, type: !257, flags: DIFlagPrototyped, spFlags: DISPFlagOptimized)
!287 = !DIImportedEntity(tag: DW_TAG_imported_declaration, scope: !2, entity: !256, file: !97, line: 246)
!288 = !DIImportedEntity(tag: DW_TAG_imported_declaration, scope: !2, entity: !260, file: !97, line: 248)
!289 = !DIImportedEntity(tag: DW_TAG_imported_declaration, scope: !2, entity: !273, file: !97, line: 249)
!290 = !DIImportedEntity(tag: DW_TAG_imported_declaration, scope: !2, entity: !264, file: !97, line: 250)
!291 = !DIImportedEntity(tag: DW_TAG_imported_declaration, scope: !2, entity: !268, file: !97, line: 251)
!292 = !DIImportedEntity(tag: DW_TAG_imported_declaration, scope: !2, entity: !278, file: !97, line: 252)
!293 = !DIImportedEntity(tag: DW_TAG_imported_declaration, scope: !2, entity: !294, file: !295, line: 58)
!294 = !DICompositeType(tag: DW_TAG_class_type, name: "exception_ptr", scope: !296, file: !295, line: 80, size: 64, flags: DIFlagFwdDecl | DIFlagNonTrivial, identifier: "_ZTSNSt15__exception_ptr13exception_ptrE")
!295 = !DIFile(filename: "/opt/rh/devtoolset-10/root/usr/lib/gcc/x86_64-redhat-linux/10/../../../../include/c++/10/bits/exception_ptr.h", directory: "", checksumkind: CSK_MD5, checksum: "17ca6bef6dd8f906cb5e59165a298a13")
!296 = !DINamespace(name: "__exception_ptr", scope: !2)
!297 = !DIImportedEntity(tag: DW_TAG_imported_declaration, scope: !296, entity: !298, file: !295, line: 74)
!298 = !DISubprogram(name: "rethrow_exception", linkageName: "_ZSt17rethrow_exceptionNSt15__exception_ptr13exception_ptrE", scope: !2, file: !295, line: 70, type: !299, flags: DIFlagPrototyped | DIFlagNoReturn, spFlags: DISPFlagOptimized)
!299 = !DISubroutineType(types: !300)
!300 = !{null, !294}
!301 = !DIImportedEntity(tag: DW_TAG_imported_declaration, scope: !2, entity: !302, file: !316, line: 64)
!302 = !DIDerivedType(tag: DW_TAG_typedef, name: "mbstate_t", file: !303, line: 106, baseType: !304)
!303 = !DIFile(filename: "/usr/include/wchar.h", directory: "", checksumkind: CSK_MD5, checksum: "40ab4dffac5f69b57d3af1d8ed226e90")
!304 = !DIDerivedType(tag: DW_TAG_typedef, name: "__mbstate_t", file: !303, line: 94, baseType: !305)
!305 = distinct !DICompositeType(tag: DW_TAG_structure_type, file: !303, line: 82, size: 64, flags: DIFlagTypePassByValue, elements: !306, identifier: "_ZTS11__mbstate_t")
!306 = !{!307, !308}
!307 = !DIDerivedType(tag: DW_TAG_member, name: "__count", scope: !305, file: !303, line: 84, baseType: !11, size: 32)
!308 = !DIDerivedType(tag: DW_TAG_member, name: "__value", scope: !305, file: !303, line: 93, baseType: !309, size: 32, offset: 32)
!309 = distinct !DICompositeType(tag: DW_TAG_union_type, scope: !305, file: !303, line: 85, size: 32, flags: DIFlagTypePassByValue, elements: !310, identifier: "_ZTSN11__mbstate_tUt_E")
!310 = !{!311, !312}
!311 = !DIDerivedType(tag: DW_TAG_member, name: "__wch", scope: !309, file: !303, line: 88, baseType: !213, size: 32)
!312 = !DIDerivedType(tag: DW_TAG_member, name: "__wchb", scope: !309, file: !303, line: 92, baseType: !313, size: 32)
!313 = !DICompositeType(tag: DW_TAG_array_type, baseType: !23, size: 32, elements: !314)
!314 = !{!315}
!315 = !DISubrange(count: 4)
!316 = !DIFile(filename: "/opt/rh/devtoolset-10/root/usr/lib/gcc/x86_64-redhat-linux/10/../../../../include/c++/10/cwchar", directory: "")
!317 = !DIImportedEntity(tag: DW_TAG_imported_declaration, scope: !2, entity: !318, file: !316, line: 141)
!318 = !DIDerivedType(tag: DW_TAG_typedef, name: "wint_t", file: !141, line: 116, baseType: !213)
!319 = !DIImportedEntity(tag: DW_TAG_imported_declaration, scope: !2, entity: !320, file: !316, line: 143)
!320 = !DISubprogram(name: "btowc", scope: !303, file: !303, line: 388, type: !321, flags: DIFlagPrototyped, spFlags: DISPFlagOptimized)
!321 = !DISubroutineType(types: !322)
!322 = !{!318, !11}
!323 = !DIImportedEntity(tag: DW_TAG_imported_declaration, scope: !2, entity: !324, file: !316, line: 144)
!324 = !DISubprogram(name: "fgetwc", scope: !303, file: !303, line: 745, type: !325, flags: DIFlagPrototyped, spFlags: DISPFlagOptimized)
!325 = !DISubroutineType(types: !326)
!326 = !{!318, !327}
!327 = !DIDerivedType(tag: DW_TAG_pointer_type, baseType: !328, size: 64)
!328 = !DIDerivedType(tag: DW_TAG_typedef, name: "__FILE", file: !329, line: 64, baseType: !330)
!329 = !DIFile(filename: "/usr/include/stdio.h", directory: "", checksumkind: CSK_MD5, checksum: "ccadb277f847191065ca006254171e90")
!330 = distinct !DICompositeType(tag: DW_TAG_structure_type, name: "_IO_FILE", file: !331, line: 246, size: 1728, flags: DIFlagTypePassByValue, elements: !332, identifier: "_ZTS8_IO_FILE")
!331 = !DIFile(filename: "/usr/include/libio.h", directory: "", checksumkind: CSK_MD5, checksum: "93df651ae2428563d8c372201ea10863")
!332 = !{!333, !334, !335, !336, !337, !338, !339, !340, !341, !342, !343, !344, !345, !348, !350, !351, !352, !355, !357, !359, !363, !366, !368, !369, !370, !371, !372, !373, !374}
!333 = !DIDerivedType(tag: DW_TAG_member, name: "_flags", scope: !330, file: !331, line: 247, baseType: !11, size: 32)
!334 = !DIDerivedType(tag: DW_TAG_member, name: "_IO_read_ptr", scope: !330, file: !331, line: 252, baseType: !22, size: 64, offset: 64)
!335 = !DIDerivedType(tag: DW_TAG_member, name: "_IO_read_end", scope: !330, file: !331, line: 253, baseType: !22, size: 64, offset: 128)
!336 = !DIDerivedType(tag: DW_TAG_member, name: "_IO_read_base", scope: !330, file: !331, line: 254, baseType: !22, size: 64, offset: 192)
!337 = !DIDerivedType(tag: DW_TAG_member, name: "_IO_write_base", scope: !330, file: !331, line: 255, baseType: !22, size: 64, offset: 256)
!338 = !DIDerivedType(tag: DW_TAG_member, name: "_IO_write_ptr", scope: !330, file: !331, line: 256, baseType: !22, size: 64, offset: 320)
!339 = !DIDerivedType(tag: DW_TAG_member, name: "_IO_write_end", scope: !330, file: !331, line: 257, baseType: !22, size: 64, offset: 384)
!340 = !DIDerivedType(tag: DW_TAG_member, name: "_IO_buf_base", scope: !330, file: !331, line: 258, baseType: !22, size: 64, offset: 448)
!341 = !DIDerivedType(tag: DW_TAG_member, name: "_IO_buf_end", scope: !330, file: !331, line: 259, baseType: !22, size: 64, offset: 512)
!342 = !DIDerivedType(tag: DW_TAG_member, name: "_IO_save_base", scope: !330, file: !331, line: 261, baseType: !22, size: 64, offset: 576)
!343 = !DIDerivedType(tag: DW_TAG_member, name: "_IO_backup_base", scope: !330, file: !331, line: 262, baseType: !22, size: 64, offset: 640)
!344 = !DIDerivedType(tag: DW_TAG_member, name: "_IO_save_end", scope: !330, file: !331, line: 263, baseType: !22, size: 64, offset: 704)
!345 = !DIDerivedType(tag: DW_TAG_member, name: "_markers", scope: !330, file: !331, line: 265, baseType: !346, size: 64, offset: 768)
!346 = !DIDerivedType(tag: DW_TAG_pointer_type, baseType: !347, size: 64)
!347 = !DICompositeType(tag: DW_TAG_structure_type, name: "_IO_marker", file: !331, line: 161, size: 192, flags: DIFlagFwdDecl, identifier: "_ZTS10_IO_marker")
!348 = !DIDerivedType(tag: DW_TAG_member, name: "_chain", scope: !330, file: !331, line: 267, baseType: !349, size: 64, offset: 832)
!349 = !DIDerivedType(tag: DW_TAG_pointer_type, baseType: !330, size: 64)
!350 = !DIDerivedType(tag: DW_TAG_member, name: "_fileno", scope: !330, file: !331, line: 269, baseType: !11, size: 32, offset: 896)
!351 = !DIDerivedType(tag: DW_TAG_member, name: "_flags2", scope: !330, file: !331, line: 273, baseType: !11, size: 32, offset: 928)
!352 = !DIDerivedType(tag: DW_TAG_member, name: "_old_offset", scope: !330, file: !331, line: 275, baseType: !353, size: 64, offset: 960)
!353 = !DIDerivedType(tag: DW_TAG_typedef, name: "__off_t", file: !354, line: 140, baseType: !29)
!354 = !DIFile(filename: "/usr/include/bits/types.h", directory: "", checksumkind: CSK_MD5, checksum: "77efac6352c67c8f56830ba4c854379f")
!355 = !DIDerivedType(tag: DW_TAG_member, name: "_cur_column", scope: !330, file: !331, line: 279, baseType: !356, size: 16, offset: 1024)
!356 = !DIBasicType(name: "unsigned short", size: 16, encoding: DW_ATE_unsigned)
!357 = !DIDerivedType(tag: DW_TAG_member, name: "_vtable_offset", scope: !330, file: !331, line: 280, baseType: !358, size: 8, offset: 1040)
!358 = !DIBasicType(name: "signed char", size: 8, encoding: DW_ATE_signed_char)
!359 = !DIDerivedType(tag: DW_TAG_member, name: "_shortbuf", scope: !330, file: !331, line: 281, baseType: !360, size: 8, offset: 1048)
!360 = !DICompositeType(tag: DW_TAG_array_type, baseType: !23, size: 8, elements: !361)
!361 = !{!362}
!362 = !DISubrange(count: 1)
!363 = !DIDerivedType(tag: DW_TAG_member, name: "_lock", scope: !330, file: !331, line: 285, baseType: !364, size: 64, offset: 1088)
!364 = !DIDerivedType(tag: DW_TAG_pointer_type, baseType: !365, size: 64)
!365 = !DIDerivedType(tag: DW_TAG_typedef, name: "_IO_lock_t", file: !331, line: 155, baseType: null)
!366 = !DIDerivedType(tag: DW_TAG_member, name: "_offset", scope: !330, file: !331, line: 294, baseType: !367, size: 64, offset: 1152)
!367 = !DIDerivedType(tag: DW_TAG_typedef, name: "__off64_t", file: !354, line: 141, baseType: !29)
!368 = !DIDerivedType(tag: DW_TAG_member, name: "__pad1", scope: !330, file: !331, line: 303, baseType: !137, size: 64, offset: 1216)
!369 = !DIDerivedType(tag: DW_TAG_member, name: "__pad2", scope: !330, file: !331, line: 304, baseType: !137, size: 64, offset: 1280)
!370 = !DIDerivedType(tag: DW_TAG_member, name: "__pad3", scope: !330, file: !331, line: 305, baseType: !137, size: 64, offset: 1344)
!371 = !DIDerivedType(tag: DW_TAG_member, name: "__pad4", scope: !330, file: !331, line: 306, baseType: !137, size: 64, offset: 1408)
!372 = !DIDerivedType(tag: DW_TAG_member, name: "__pad5", scope: !330, file: !331, line: 307, baseType: !140, size: 64, offset: 1472)
!373 = !DIDerivedType(tag: DW_TAG_member, name: "_mode", scope: !330, file: !331, line: 309, baseType: !11, size: 32, offset: 1536)
!374 = !DIDerivedType(tag: DW_TAG_member, name: "_unused2", scope: !330, file: !331, line: 311, baseType: !375, size: 160, offset: 1568)
!375 = !DICompositeType(tag: DW_TAG_array_type, baseType: !23, size: 160, elements: !376)
!376 = !{!377}
!377 = !DISubrange(count: 20)
!378 = !DIImportedEntity(tag: DW_TAG_imported_declaration, scope: !2, entity: !379, file: !316, line: 145)
!379 = !DISubprogram(name: "fgetws", scope: !303, file: !303, line: 774, type: !380, flags: DIFlagPrototyped, spFlags: DISPFlagOptimized)
!380 = !DISubroutineType(types: !381)
!381 = !{!188, !187, !11, !382}
!382 = !DIDerivedType(tag: DW_TAG_restrict_type, baseType: !327)
!383 = !DIImportedEntity(tag: DW_TAG_imported_declaration, scope: !2, entity: !384, file: !316, line: 146)
!384 = !DISubprogram(name: "fputwc", scope: !303, file: !303, line: 759, type: !385, flags: DIFlagPrototyped, spFlags: DISPFlagOptimized)
!385 = !DISubroutineType(types: !386)
!386 = !{!318, !189, !327}
!387 = !DIImportedEntity(tag: DW_TAG_imported_declaration, scope: !2, entity: !388, file: !316, line: 147)
!388 = !DISubprogram(name: "fputws", scope: !303, file: !303, line: 781, type: !389, flags: DIFlagPrototyped, spFlags: DISPFlagOptimized)
!389 = !DISubroutineType(types: !390)
!390 = !{!11, !234, !382}
!391 = !DIImportedEntity(tag: DW_TAG_imported_declaration, scope: !2, entity: !392, file: !316, line: 148)
!392 = !DISubprogram(name: "fwide", scope: !303, file: !303, line: 587, type: !393, flags: DIFlagPrototyped, spFlags: DISPFlagOptimized)
!393 = !DISubroutineType(types: !394)
!394 = !{!11, !327, !11}
!395 = !DIImportedEntity(tag: DW_TAG_imported_declaration, scope: !2, entity: !396, file: !316, line: 149)
!396 = !DISubprogram(name: "fwprintf", scope: !303, file: !303, line: 594, type: !397, flags: DIFlagPrototyped, spFlags: DISPFlagOptimized)
!397 = !DISubroutineType(types: !398)
!398 = !{!11, !382, !234, null}
!399 = !DIImportedEntity(tag: DW_TAG_imported_declaration, scope: !2, entity: !400, file: !316, line: 150)
!400 = !DISubprogram(name: "fwscanf", scope: !303, file: !303, line: 635, type: !397, flags: DIFlagPrototyped, spFlags: DISPFlagOptimized)
!401 = !DIImportedEntity(tag: DW_TAG_imported_declaration, scope: !2, entity: !402, file: !316, line: 151)
!402 = !DISubprogram(name: "getwc", scope: !303, file: !303, line: 746, type: !325, flags: DIFlagPrototyped, spFlags: DISPFlagOptimized)
!403 = !DIImportedEntity(tag: DW_TAG_imported_declaration, scope: !2, entity: !404, file: !316, line: 152)
!404 = !DISubprogram(name: "getwchar", scope: !303, file: !303, line: 752, type: !405, flags: DIFlagPrototyped, spFlags: DISPFlagOptimized)
!405 = !DISubroutineType(types: !406)
!406 = !{!318}
!407 = !DIImportedEntity(tag: DW_TAG_imported_declaration, scope: !2, entity: !408, file: !316, line: 153)
!408 = !DISubprogram(name: "mbrlen", scope: !303, file: !303, line: 399, type: !409, flags: DIFlagPrototyped, spFlags: DISPFlagOptimized)
!409 = !DISubroutineType(types: !410)
!410 = !{!140, !190, !140, !411}
!411 = !DIDerivedType(tag: DW_TAG_restrict_type, baseType: !412)
!412 = !DIDerivedType(tag: DW_TAG_pointer_type, baseType: !302, size: 64)
!413 = !DIImportedEntity(tag: DW_TAG_imported_declaration, scope: !2, entity: !414, file: !316, line: 154)
!414 = !DISubprogram(name: "mbrtowc", scope: !303, file: !303, line: 365, type: !415, flags: DIFlagPrototyped, spFlags: DISPFlagOptimized)
!415 = !DISubroutineType(types: !416)
!416 = !{!140, !187, !190, !140, !411}
!417 = !DIImportedEntity(tag: DW_TAG_imported_declaration, scope: !2, entity: !418, file: !316, line: 155)
!418 = !DISubprogram(name: "mbsinit", scope: !303, file: !303, line: 361, type: !419, flags: DIFlagPrototyped, spFlags: DISPFlagOptimized)
!419 = !DISubroutineType(types: !420)
!420 = !{!11, !421}
!421 = !DIDerivedType(tag: DW_TAG_pointer_type, baseType: !422, size: 64)
!422 = !DIDerivedType(tag: DW_TAG_const_type, baseType: !302)
!423 = !DIImportedEntity(tag: DW_TAG_imported_declaration, scope: !2, entity: !424, file: !316, line: 156)
!424 = !DISubprogram(name: "mbsrtowcs", scope: !303, file: !303, line: 408, type: !425, flags: DIFlagPrototyped, spFlags: DISPFlagOptimized)
!425 = !DISubroutineType(types: !426)
!426 = !{!140, !187, !427, !140, !411}
!427 = !DIDerivedType(tag: DW_TAG_restrict_type, baseType: !428)
!428 = !DIDerivedType(tag: DW_TAG_pointer_type, baseType: !121, size: 64)
!429 = !DIImportedEntity(tag: DW_TAG_imported_declaration, scope: !2, entity: !430, file: !316, line: 157)
!430 = !DISubprogram(name: "putwc", scope: !303, file: !303, line: 760, type: !385, flags: DIFlagPrototyped, spFlags: DISPFlagOptimized)
!431 = !DIImportedEntity(tag: DW_TAG_imported_declaration, scope: !2, entity: !432, file: !316, line: 158)
!432 = !DISubprogram(name: "putwchar", scope: !303, file: !303, line: 766, type: !433, flags: DIFlagPrototyped, spFlags: DISPFlagOptimized)
!433 = !DISubroutineType(types: !434)
!434 = !{!318, !189}
!435 = !DIImportedEntity(tag: DW_TAG_imported_declaration, scope: !2, entity: !436, file: !316, line: 160)
!436 = !DISubprogram(name: "swprintf", scope: !303, file: !303, line: 604, type: !437, flags: DIFlagPrototyped, spFlags: DISPFlagOptimized)
!437 = !DISubroutineType(types: !438)
!438 = !{!11, !187, !140, !234, null}
!439 = !DIImportedEntity(tag: DW_TAG_imported_declaration, scope: !2, entity: !440, file: !316, line: 162)
!440 = !DISubprogram(name: "swscanf", scope: !303, file: !303, line: 645, type: !441, flags: DIFlagPrototyped, spFlags: DISPFlagOptimized)
!441 = !DISubroutineType(types: !442)
!442 = !{!11, !234, !234, null}
!443 = !DIImportedEntity(tag: DW_TAG_imported_declaration, scope: !2, entity: !444, file: !316, line: 163)
!444 = !DISubprogram(name: "ungetwc", scope: !303, file: !303, line: 789, type: !445, flags: DIFlagPrototyped, spFlags: DISPFlagOptimized)
!445 = !DISubroutineType(types: !446)
!446 = !{!318, !318, !327}
!447 = !DIImportedEntity(tag: DW_TAG_imported_declaration, scope: !2, entity: !448, file: !316, line: 164)
!448 = !DISubprogram(name: "vfwprintf", scope: !303, file: !303, line: 612, type: !449, flags: DIFlagPrototyped, spFlags: DISPFlagOptimized)
!449 = !DISubroutineType(types: !450)
!450 = !{!11, !382, !234, !451}
!451 = !DIDerivedType(tag: DW_TAG_pointer_type, baseType: !452, size: 64)
!452 = distinct !DICompositeType(tag: DW_TAG_structure_type, name: "__va_list_tag", size: 192, flags: DIFlagTypePassByValue, elements: !453, identifier: "_ZTS13__va_list_tag")
!453 = !{!454, !456, !457, !458}
!454 = !DIDerivedType(tag: DW_TAG_member, name: "gp_offset", scope: !452, file: !455, baseType: !213, size: 32)
!455 = !DIFile(filename: "qsort.cpp", directory: "/afs/ece/project/seth_group/ziqiliu/test/cilk5")
!456 = !DIDerivedType(tag: DW_TAG_member, name: "fp_offset", scope: !452, file: !455, baseType: !213, size: 32, offset: 32)
!457 = !DIDerivedType(tag: DW_TAG_member, name: "overflow_arg_area", scope: !452, file: !455, baseType: !137, size: 64, offset: 64)
!458 = !DIDerivedType(tag: DW_TAG_member, name: "reg_save_area", scope: !452, file: !455, baseType: !137, size: 64, offset: 128)
!459 = !DIImportedEntity(tag: DW_TAG_imported_declaration, scope: !2, entity: !460, file: !316, line: 166)
!460 = !DISubprogram(name: "vfwscanf", scope: !303, file: !303, line: 689, type: !449, flags: DIFlagPrototyped, spFlags: DISPFlagOptimized)
!461 = !DIImportedEntity(tag: DW_TAG_imported_declaration, scope: !2, entity: !462, file: !316, line: 169)
!462 = !DISubprogram(name: "vswprintf", scope: !303, file: !303, line: 625, type: !463, flags: DIFlagPrototyped, spFlags: DISPFlagOptimized)
!463 = !DISubroutineType(types: !464)
!464 = !{!11, !187, !140, !234, !451}
!465 = !DIImportedEntity(tag: DW_TAG_imported_declaration, scope: !2, entity: !466, file: !316, line: 172)
!466 = !DISubprogram(name: "vswscanf", scope: !303, file: !303, line: 701, type: !467, flags: DIFlagPrototyped, spFlags: DISPFlagOptimized)
!467 = !DISubroutineType(types: !468)
!468 = !{!11, !234, !234, !451}
!469 = !DIImportedEntity(tag: DW_TAG_imported_declaration, scope: !2, entity: !470, file: !316, line: 174)
!470 = !DISubprogram(name: "vwprintf", scope: !303, file: !303, line: 620, type: !471, flags: DIFlagPrototyped, spFlags: DISPFlagOptimized)
!471 = !DISubroutineType(types: !472)
!472 = !{!11, !234, !451}
!473 = !DIImportedEntity(tag: DW_TAG_imported_declaration, scope: !2, entity: !474, file: !316, line: 176)
!474 = !DISubprogram(name: "vwscanf", scope: !303, file: !303, line: 697, type: !471, flags: DIFlagPrototyped, spFlags: DISPFlagOptimized)
!475 = !DIImportedEntity(tag: DW_TAG_imported_declaration, scope: !2, entity: !476, file: !316, line: 178)
!476 = !DISubprogram(name: "wcrtomb", scope: !303, file: !303, line: 370, type: !477, flags: DIFlagPrototyped, spFlags: DISPFlagOptimized)
!477 = !DISubroutineType(types: !478)
!478 = !{!140, !233, !189, !411}
!479 = !DIImportedEntity(tag: DW_TAG_imported_declaration, scope: !2, entity: !480, file: !316, line: 179)
!480 = !DISubprogram(name: "wcscat", scope: !303, file: !303, line: 155, type: !481, flags: DIFlagPrototyped, spFlags: DISPFlagOptimized)
!481 = !DISubroutineType(types: !482)
!482 = !{!188, !187, !234}
!483 = !DIImportedEntity(tag: DW_TAG_imported_declaration, scope: !2, entity: !484, file: !316, line: 180)
!484 = !DISubprogram(name: "wcscmp", scope: !303, file: !303, line: 163, type: !485, flags: DIFlagPrototyped, spFlags: DISPFlagOptimized)
!485 = !DISubroutineType(types: !486)
!486 = !{!11, !235, !235}
!487 = !DIImportedEntity(tag: DW_TAG_imported_declaration, scope: !2, entity: !488, file: !316, line: 181)
!488 = !DISubprogram(name: "wcscoll", scope: !303, file: !303, line: 192, type: !485, flags: DIFlagPrototyped, spFlags: DISPFlagOptimized)
!489 = !DIImportedEntity(tag: DW_TAG_imported_declaration, scope: !2, entity: !490, file: !316, line: 182)
!490 = !DISubprogram(name: "wcscpy", scope: !303, file: !303, line: 147, type: !481, flags: DIFlagPrototyped, spFlags: DISPFlagOptimized)
!491 = !DIImportedEntity(tag: DW_TAG_imported_declaration, scope: !2, entity: !492, file: !316, line: 183)
!492 = !DISubprogram(name: "wcscspn", scope: !303, file: !303, line: 252, type: !493, flags: DIFlagPrototyped, spFlags: DISPFlagOptimized)
!493 = !DISubroutineType(types: !494)
!494 = !{!140, !235, !235}
!495 = !DIImportedEntity(tag: DW_TAG_imported_declaration, scope: !2, entity: !496, file: !316, line: 184)
!496 = !DISubprogram(name: "wcsftime", scope: !303, file: !303, line: 855, type: !497, flags: DIFlagPrototyped, spFlags: DISPFlagOptimized)
!497 = !DISubroutineType(types: !498)
!498 = !{!140, !187, !140, !234, !499}
!499 = !DIDerivedType(tag: DW_TAG_restrict_type, baseType: !500)
!500 = !DIDerivedType(tag: DW_TAG_pointer_type, baseType: !501, size: 64)
!501 = !DIDerivedType(tag: DW_TAG_const_type, baseType: !502)
!502 = !DICompositeType(tag: DW_TAG_structure_type, name: "tm", file: !303, line: 137, flags: DIFlagFwdDecl | DIFlagNonTrivial, identifier: "_ZTS2tm")
!503 = !DIImportedEntity(tag: DW_TAG_imported_declaration, scope: !2, entity: !504, file: !316, line: 185)
!504 = !DISubprogram(name: "wcslen", scope: !303, file: !303, line: 287, type: !505, flags: DIFlagPrototyped, spFlags: DISPFlagOptimized)
!505 = !DISubroutineType(types: !506)
!506 = !{!140, !235}
!507 = !DIImportedEntity(tag: DW_TAG_imported_declaration, scope: !2, entity: !508, file: !316, line: 186)
!508 = !DISubprogram(name: "wcsncat", scope: !303, file: !303, line: 158, type: !509, flags: DIFlagPrototyped, spFlags: DISPFlagOptimized)
!509 = !DISubroutineType(types: !510)
!510 = !{!188, !187, !234, !140}
!511 = !DIImportedEntity(tag: DW_TAG_imported_declaration, scope: !2, entity: !512, file: !316, line: 187)
!512 = !DISubprogram(name: "wcsncmp", scope: !303, file: !303, line: 166, type: !513, flags: DIFlagPrototyped, spFlags: DISPFlagOptimized)
!513 = !DISubroutineType(types: !514)
!514 = !{!11, !235, !235, !140}
!515 = !DIImportedEntity(tag: DW_TAG_imported_declaration, scope: !2, entity: !516, file: !316, line: 188)
!516 = !DISubprogram(name: "wcsncpy", scope: !303, file: !303, line: 150, type: !509, flags: DIFlagPrototyped, spFlags: DISPFlagOptimized)
!517 = !DIImportedEntity(tag: DW_TAG_imported_declaration, scope: !2, entity: !518, file: !316, line: 189)
!518 = !DISubprogram(name: "wcsrtombs", scope: !303, file: !303, line: 414, type: !519, flags: DIFlagPrototyped, spFlags: DISPFlagOptimized)
!519 = !DISubroutineType(types: !520)
!520 = !{!140, !233, !521, !140, !411}
!521 = !DIDerivedType(tag: DW_TAG_restrict_type, baseType: !522)
!522 = !DIDerivedType(tag: DW_TAG_pointer_type, baseType: !235, size: 64)
!523 = !DIImportedEntity(tag: DW_TAG_imported_declaration, scope: !2, entity: !524, file: !316, line: 190)
!524 = !DISubprogram(name: "wcsspn", scope: !303, file: !303, line: 256, type: !493, flags: DIFlagPrototyped, spFlags: DISPFlagOptimized)
!525 = !DIImportedEntity(tag: DW_TAG_imported_declaration, scope: !2, entity: !526, file: !316, line: 191)
!526 = !DISubprogram(name: "wcstod", scope: !303, file: !303, line: 450, type: !527, flags: DIFlagPrototyped, spFlags: DISPFlagOptimized)
!527 = !DISubroutineType(types: !528)
!528 = !{!120, !234, !529}
!529 = !DIDerivedType(tag: DW_TAG_restrict_type, baseType: !530)
!530 = !DIDerivedType(tag: DW_TAG_pointer_type, baseType: !188, size: 64)
!531 = !DIImportedEntity(tag: DW_TAG_imported_declaration, scope: !2, entity: !532, file: !316, line: 193)
!532 = !DISubprogram(name: "wcstof", scope: !303, file: !303, line: 457, type: !533, flags: DIFlagPrototyped, spFlags: DISPFlagOptimized)
!533 = !DISubroutineType(types: !534)
!534 = !{!276, !234, !529}
!535 = !DIImportedEntity(tag: DW_TAG_imported_declaration, scope: !2, entity: !536, file: !316, line: 195)
!536 = !DISubprogram(name: "wcstok", scope: !303, file: !303, line: 282, type: !537, flags: DIFlagPrototyped, spFlags: DISPFlagOptimized)
!537 = !DISubroutineType(types: !538)
!538 = !{!188, !187, !234, !529}
!539 = !DIImportedEntity(tag: DW_TAG_imported_declaration, scope: !2, entity: !540, file: !316, line: 196)
!540 = !DISubprogram(name: "wcstol", scope: !303, file: !303, line: 468, type: !541, flags: DIFlagPrototyped, spFlags: DISPFlagOptimized)
!541 = !DISubroutineType(types: !542)
!542 = !{!29, !234, !529, !11}
!543 = !DIImportedEntity(tag: DW_TAG_imported_declaration, scope: !2, entity: !544, file: !316, line: 197)
!544 = !DISubprogram(name: "wcstoul", scope: !303, file: !303, line: 473, type: !545, flags: DIFlagPrototyped, spFlags: DISPFlagOptimized)
!545 = !DISubroutineType(types: !546)
!546 = !{!142, !234, !529, !11}
!547 = !DIImportedEntity(tag: DW_TAG_imported_declaration, scope: !2, entity: !548, file: !316, line: 198)
!548 = !DISubprogram(name: "wcsxfrm", scope: !303, file: !303, line: 196, type: !549, flags: DIFlagPrototyped, spFlags: DISPFlagOptimized)
!549 = !DISubroutineType(types: !550)
!550 = !{!140, !187, !234, !140}
!551 = !DIImportedEntity(tag: DW_TAG_imported_declaration, scope: !2, entity: !552, file: !316, line: 199)
!552 = !DISubprogram(name: "wctob", scope: !303, file: !303, line: 394, type: !553, flags: DIFlagPrototyped, spFlags: DISPFlagOptimized)
!553 = !DISubroutineType(types: !554)
!554 = !{!11, !318}
!555 = !DIImportedEntity(tag: DW_TAG_imported_declaration, scope: !2, entity: !556, file: !316, line: 200)
!556 = !DISubprogram(name: "wmemcmp", scope: !303, file: !303, line: 325, type: !513, flags: DIFlagPrototyped, spFlags: DISPFlagOptimized)
!557 = !DIImportedEntity(tag: DW_TAG_imported_declaration, scope: !2, entity: !558, file: !316, line: 201)
!558 = !DISubprogram(name: "wmemcpy", scope: !303, file: !303, line: 329, type: !509, flags: DIFlagPrototyped, spFlags: DISPFlagOptimized)
!559 = !DIImportedEntity(tag: DW_TAG_imported_declaration, scope: !2, entity: !560, file: !316, line: 202)
!560 = !DISubprogram(name: "wmemmove", scope: !303, file: !303, line: 334, type: !561, flags: DIFlagPrototyped, spFlags: DISPFlagOptimized)
!561 = !DISubroutineType(types: !562)
!562 = !{!188, !188, !235, !140}
!563 = !DIImportedEntity(tag: DW_TAG_imported_declaration, scope: !2, entity: !564, file: !316, line: 203)
!564 = !DISubprogram(name: "wmemset", scope: !303, file: !303, line: 338, type: !565, flags: DIFlagPrototyped, spFlags: DISPFlagOptimized)
!565 = !DISubroutineType(types: !566)
!566 = !{!188, !188, !189, !140}
!567 = !DIImportedEntity(tag: DW_TAG_imported_declaration, scope: !2, entity: !568, file: !316, line: 204)
!568 = !DISubprogram(name: "wprintf", scope: !303, file: !303, line: 601, type: !569, flags: DIFlagPrototyped, spFlags: DISPFlagOptimized)
!569 = !DISubroutineType(types: !570)
!570 = !{!11, !234, null}
!571 = !DIImportedEntity(tag: DW_TAG_imported_declaration, scope: !2, entity: !572, file: !316, line: 205)
!572 = !DISubprogram(name: "wscanf", scope: !303, file: !303, line: 642, type: !569, flags: DIFlagPrototyped, spFlags: DISPFlagOptimized)
!573 = !DIImportedEntity(tag: DW_TAG_imported_declaration, scope: !2, entity: !574, file: !316, line: 206)
!574 = !DISubprogram(name: "wcschr", scope: !303, file: !303, line: 227, type: !575, flags: DIFlagPrototyped, spFlags: DISPFlagOptimized)
!575 = !DISubroutineType(types: !576)
!576 = !{!188, !235, !189}
!577 = !DIImportedEntity(tag: DW_TAG_imported_declaration, scope: !2, entity: !578, file: !316, line: 207)
!578 = !DISubprogram(name: "wcspbrk", scope: !303, file: !303, line: 266, type: !579, flags: DIFlagPrototyped, spFlags: DISPFlagOptimized)
!579 = !DISubroutineType(types: !580)
!580 = !{!188, !235, !235}
!581 = !DIImportedEntity(tag: DW_TAG_imported_declaration, scope: !2, entity: !582, file: !316, line: 208)
!582 = !DISubprogram(name: "wcsrchr", scope: !303, file: !303, line: 237, type: !575, flags: DIFlagPrototyped, spFlags: DISPFlagOptimized)
!583 = !DIImportedEntity(tag: DW_TAG_imported_declaration, scope: !2, entity: !584, file: !316, line: 209)
!584 = !DISubprogram(name: "wcsstr", scope: !303, file: !303, line: 277, type: !579, flags: DIFlagPrototyped, spFlags: DISPFlagOptimized)
!585 = !DIImportedEntity(tag: DW_TAG_imported_declaration, scope: !2, entity: !586, file: !316, line: 210)
!586 = !DISubprogram(name: "wmemchr", scope: !303, file: !303, line: 320, type: !587, flags: DIFlagPrototyped, spFlags: DISPFlagOptimized)
!587 = !DISubroutineType(types: !588)
!588 = !{!188, !235, !189, !140}
!589 = !DIImportedEntity(tag: DW_TAG_imported_declaration, scope: !242, entity: !590, file: !316, line: 251)
!590 = !DISubprogram(name: "wcstold", scope: !303, file: !303, line: 459, type: !591, flags: DIFlagPrototyped, spFlags: DISPFlagOptimized)
!591 = !DISubroutineType(types: !592)
!592 = !{!281, !234, !529}
!593 = !DIImportedEntity(tag: DW_TAG_imported_declaration, scope: !242, entity: !594, file: !316, line: 260)
!594 = !DISubprogram(name: "wcstoll", scope: !303, file: !303, line: 483, type: !595, flags: DIFlagPrototyped, spFlags: DISPFlagOptimized)
!595 = !DISubroutineType(types: !596)
!596 = !{!247, !234, !529, !11}
!597 = !DIImportedEntity(tag: DW_TAG_imported_declaration, scope: !242, entity: !598, file: !316, line: 261)
!598 = !DISubprogram(name: "wcstoull", scope: !303, file: !303, line: 490, type: !599, flags: DIFlagPrototyped, spFlags: DISPFlagOptimized)
!599 = !DISubroutineType(types: !600)
!600 = !{!271, !234, !529, !11}
!601 = !DIImportedEntity(tag: DW_TAG_imported_declaration, scope: !2, entity: !590, file: !316, line: 267)
!602 = !DIImportedEntity(tag: DW_TAG_imported_declaration, scope: !2, entity: !594, file: !316, line: 268)
!603 = !DIImportedEntity(tag: DW_TAG_imported_declaration, scope: !2, entity: !598, file: !316, line: 269)
!604 = !DIImportedEntity(tag: DW_TAG_imported_declaration, scope: !2, entity: !532, file: !316, line: 283)
!605 = !DIImportedEntity(tag: DW_TAG_imported_declaration, scope: !2, entity: !460, file: !316, line: 286)
!606 = !DIImportedEntity(tag: DW_TAG_imported_declaration, scope: !2, entity: !466, file: !316, line: 289)
!607 = !DIImportedEntity(tag: DW_TAG_imported_declaration, scope: !2, entity: !474, file: !316, line: 292)
!608 = !DIImportedEntity(tag: DW_TAG_imported_declaration, scope: !2, entity: !590, file: !316, line: 296)
!609 = !DIImportedEntity(tag: DW_TAG_imported_declaration, scope: !2, entity: !594, file: !316, line: 297)
!610 = !DIImportedEntity(tag: DW_TAG_imported_declaration, scope: !2, entity: !598, file: !316, line: 298)
!611 = !DIImportedEntity(tag: DW_TAG_imported_declaration, scope: !2, entity: !612, file: !614, line: 47)
!612 = !DIDerivedType(tag: DW_TAG_typedef, name: "int8_t", file: !613, line: 194, baseType: !358)
!613 = !DIFile(filename: "/usr/include/sys/types.h", directory: "", checksumkind: CSK_MD5, checksum: "d51bf3d0d54052f352975a99c7145a77")
!614 = !DIFile(filename: "/opt/rh/devtoolset-10/root/usr/lib/gcc/x86_64-redhat-linux/10/../../../../include/c++/10/cstdint", directory: "")
!615 = !DIImportedEntity(tag: DW_TAG_imported_declaration, scope: !2, entity: !616, file: !614, line: 48)
!616 = !DIDerivedType(tag: DW_TAG_typedef, name: "int16_t", file: !613, line: 195, baseType: !617)
!617 = !DIBasicType(name: "short", size: 16, encoding: DW_ATE_signed)
!618 = !DIImportedEntity(tag: DW_TAG_imported_declaration, scope: !2, entity: !619, file: !614, line: 49)
!619 = !DIDerivedType(tag: DW_TAG_typedef, name: "int32_t", file: !613, line: 196, baseType: !11)
!620 = !DIImportedEntity(tag: DW_TAG_imported_declaration, scope: !2, entity: !621, file: !614, line: 50)
!621 = !DIDerivedType(tag: DW_TAG_typedef, name: "int64_t", file: !613, line: 197, baseType: !29)
!622 = !DIImportedEntity(tag: DW_TAG_imported_declaration, scope: !2, entity: !623, file: !614, line: 52)
!623 = !DIDerivedType(tag: DW_TAG_typedef, name: "int_fast8_t", file: !624, line: 90, baseType: !358)
!624 = !DIFile(filename: "/usr/include/stdint.h", directory: "", checksumkind: CSK_MD5, checksum: "eed4343443893ce688927c5a48744974")
!625 = !DIImportedEntity(tag: DW_TAG_imported_declaration, scope: !2, entity: !626, file: !614, line: 53)
!626 = !DIDerivedType(tag: DW_TAG_typedef, name: "int_fast16_t", file: !624, line: 92, baseType: !29)
!627 = !DIImportedEntity(tag: DW_TAG_imported_declaration, scope: !2, entity: !628, file: !614, line: 54)
!628 = !DIDerivedType(tag: DW_TAG_typedef, name: "int_fast32_t", file: !624, line: 93, baseType: !29)
!629 = !DIImportedEntity(tag: DW_TAG_imported_declaration, scope: !2, entity: !630, file: !614, line: 55)
!630 = !DIDerivedType(tag: DW_TAG_typedef, name: "int_fast64_t", file: !624, line: 94, baseType: !29)
!631 = !DIImportedEntity(tag: DW_TAG_imported_declaration, scope: !2, entity: !632, file: !614, line: 57)
!632 = !DIDerivedType(tag: DW_TAG_typedef, name: "int_least8_t", file: !624, line: 65, baseType: !358)
!633 = !DIImportedEntity(tag: DW_TAG_imported_declaration, scope: !2, entity: !634, file: !614, line: 58)
!634 = !DIDerivedType(tag: DW_TAG_typedef, name: "int_least16_t", file: !624, line: 66, baseType: !617)
!635 = !DIImportedEntity(tag: DW_TAG_imported_declaration, scope: !2, entity: !636, file: !614, line: 59)
!636 = !DIDerivedType(tag: DW_TAG_typedef, name: "int_least32_t", file: !624, line: 67, baseType: !11)
!637 = !DIImportedEntity(tag: DW_TAG_imported_declaration, scope: !2, entity: !638, file: !614, line: 60)
!638 = !DIDerivedType(tag: DW_TAG_typedef, name: "int_least64_t", file: !624, line: 69, baseType: !29)
!639 = !DIImportedEntity(tag: DW_TAG_imported_declaration, scope: !2, entity: !640, file: !614, line: 62)
!640 = !DIDerivedType(tag: DW_TAG_typedef, name: "intmax_t", file: !624, line: 134, baseType: !29)
!641 = !DIImportedEntity(tag: DW_TAG_imported_declaration, scope: !2, entity: !642, file: !614, line: 63)
!642 = !DIDerivedType(tag: DW_TAG_typedef, name: "intptr_t", file: !624, line: 119, baseType: !29)
!643 = !DIImportedEntity(tag: DW_TAG_imported_declaration, scope: !2, entity: !644, file: !614, line: 65)
!644 = !DIDerivedType(tag: DW_TAG_typedef, name: "uint8_t", file: !624, line: 48, baseType: !30)
!645 = !DIImportedEntity(tag: DW_TAG_imported_declaration, scope: !2, entity: !646, file: !614, line: 66)
!646 = !DIDerivedType(tag: DW_TAG_typedef, name: "uint16_t", file: !624, line: 49, baseType: !356)
!647 = !DIImportedEntity(tag: DW_TAG_imported_declaration, scope: !2, entity: !648, file: !614, line: 67)
!648 = !DIDerivedType(tag: DW_TAG_typedef, name: "uint32_t", file: !624, line: 51, baseType: !213)
!649 = !DIImportedEntity(tag: DW_TAG_imported_declaration, scope: !2, entity: !650, file: !614, line: 68)
!650 = !DIDerivedType(tag: DW_TAG_typedef, name: "uint64_t", file: !624, line: 55, baseType: !142)
!651 = !DIImportedEntity(tag: DW_TAG_imported_declaration, scope: !2, entity: !652, file: !614, line: 70)
!652 = !DIDerivedType(tag: DW_TAG_typedef, name: "uint_fast8_t", file: !624, line: 103, baseType: !30)
!653 = !DIImportedEntity(tag: DW_TAG_imported_declaration, scope: !2, entity: !654, file: !614, line: 71)
!654 = !DIDerivedType(tag: DW_TAG_typedef, name: "uint_fast16_t", file: !624, line: 105, baseType: !142)
!655 = !DIImportedEntity(tag: DW_TAG_imported_declaration, scope: !2, entity: !656, file: !614, line: 72)
!656 = !DIDerivedType(tag: DW_TAG_typedef, name: "uint_fast32_t", file: !624, line: 106, baseType: !142)
!657 = !DIImportedEntity(tag: DW_TAG_imported_declaration, scope: !2, entity: !658, file: !614, line: 73)
!658 = !DIDerivedType(tag: DW_TAG_typedef, name: "uint_fast64_t", file: !624, line: 107, baseType: !142)
!659 = !DIImportedEntity(tag: DW_TAG_imported_declaration, scope: !2, entity: !660, file: !614, line: 75)
!660 = !DIDerivedType(tag: DW_TAG_typedef, name: "uint_least8_t", file: !624, line: 76, baseType: !30)
!661 = !DIImportedEntity(tag: DW_TAG_imported_declaration, scope: !2, entity: !662, file: !614, line: 76)
!662 = !DIDerivedType(tag: DW_TAG_typedef, name: "uint_least16_t", file: !624, line: 77, baseType: !356)
!663 = !DIImportedEntity(tag: DW_TAG_imported_declaration, scope: !2, entity: !664, file: !614, line: 77)
!664 = !DIDerivedType(tag: DW_TAG_typedef, name: "uint_least32_t", file: !624, line: 78, baseType: !213)
!665 = !DIImportedEntity(tag: DW_TAG_imported_declaration, scope: !2, entity: !666, file: !614, line: 78)
!666 = !DIDerivedType(tag: DW_TAG_typedef, name: "uint_least64_t", file: !624, line: 80, baseType: !142)
!667 = !DIImportedEntity(tag: DW_TAG_imported_declaration, scope: !2, entity: !668, file: !614, line: 80)
!668 = !DIDerivedType(tag: DW_TAG_typedef, name: "uintmax_t", file: !624, line: 135, baseType: !142)
!669 = !DIImportedEntity(tag: DW_TAG_imported_declaration, scope: !2, entity: !670, file: !614, line: 81)
!670 = !DIDerivedType(tag: DW_TAG_typedef, name: "uintptr_t", file: !624, line: 122, baseType: !142)
!671 = !DIImportedEntity(tag: DW_TAG_imported_declaration, scope: !2, entity: !672, file: !674, line: 53)
!672 = !DICompositeType(tag: DW_TAG_structure_type, name: "lconv", file: !673, line: 54, size: 768, flags: DIFlagFwdDecl, identifier: "_ZTS5lconv")
!673 = !DIFile(filename: "/usr/include/locale.h", directory: "", checksumkind: CSK_MD5, checksum: "0b81f618ca4c54f12e7a9e8ac50f3f84")
!674 = !DIFile(filename: "/opt/rh/devtoolset-10/root/usr/lib/gcc/x86_64-redhat-linux/10/../../../../include/c++/10/clocale", directory: "")
!675 = !DIImportedEntity(tag: DW_TAG_imported_declaration, scope: !2, entity: !676, file: !674, line: 54)
!676 = !DISubprogram(name: "setlocale", scope: !673, file: !673, line: 125, type: !677, flags: DIFlagPrototyped, spFlags: DISPFlagOptimized)
!677 = !DISubroutineType(types: !678)
!678 = !{!22, !11, !121}
!679 = !DIImportedEntity(tag: DW_TAG_imported_declaration, scope: !2, entity: !680, file: !674, line: 55)
!680 = !DISubprogram(name: "localeconv", scope: !673, file: !673, line: 128, type: !681, flags: DIFlagPrototyped, spFlags: DISPFlagOptimized)
!681 = !DISubroutineType(types: !682)
!682 = !{!683}
!683 = !DIDerivedType(tag: DW_TAG_pointer_type, baseType: !672, size: 64)
!684 = !DIImportedEntity(tag: DW_TAG_imported_declaration, scope: !2, entity: !685, file: !687, line: 64)
!685 = !DISubprogram(name: "isalnum", scope: !686, file: !686, line: 111, type: !91, flags: DIFlagPrototyped, spFlags: DISPFlagOptimized)
!686 = !DIFile(filename: "/usr/include/ctype.h", directory: "", checksumkind: CSK_MD5, checksum: "82d72f82a2fb9d259aaabf9260421363")
!687 = !DIFile(filename: "/opt/rh/devtoolset-10/root/usr/lib/gcc/x86_64-redhat-linux/10/../../../../include/c++/10/cctype", directory: "")
!688 = !DIImportedEntity(tag: DW_TAG_imported_declaration, scope: !2, entity: !689, file: !687, line: 65)
!689 = !DISubprogram(name: "isalpha", scope: !686, file: !686, line: 112, type: !91, flags: DIFlagPrototyped, spFlags: DISPFlagOptimized)
!690 = !DIImportedEntity(tag: DW_TAG_imported_declaration, scope: !2, entity: !691, file: !687, line: 66)
!691 = !DISubprogram(name: "iscntrl", scope: !686, file: !686, line: 113, type: !91, flags: DIFlagPrototyped, spFlags: DISPFlagOptimized)
!692 = !DIImportedEntity(tag: DW_TAG_imported_declaration, scope: !2, entity: !693, file: !687, line: 67)
!693 = !DISubprogram(name: "isdigit", scope: !686, file: !686, line: 114, type: !91, flags: DIFlagPrototyped, spFlags: DISPFlagOptimized)
!694 = !DIImportedEntity(tag: DW_TAG_imported_declaration, scope: !2, entity: !695, file: !687, line: 68)
!695 = !DISubprogram(name: "isgraph", scope: !686, file: !686, line: 116, type: !91, flags: DIFlagPrototyped, spFlags: DISPFlagOptimized)
!696 = !DIImportedEntity(tag: DW_TAG_imported_declaration, scope: !2, entity: !697, file: !687, line: 69)
!697 = !DISubprogram(name: "islower", scope: !686, file: !686, line: 115, type: !91, flags: DIFlagPrototyped, spFlags: DISPFlagOptimized)
!698 = !DIImportedEntity(tag: DW_TAG_imported_declaration, scope: !2, entity: !699, file: !687, line: 70)
!699 = !DISubprogram(name: "isprint", scope: !686, file: !686, line: 117, type: !91, flags: DIFlagPrototyped, spFlags: DISPFlagOptimized)
!700 = !DIImportedEntity(tag: DW_TAG_imported_declaration, scope: !2, entity: !701, file: !687, line: 71)
!701 = !DISubprogram(name: "ispunct", scope: !686, file: !686, line: 118, type: !91, flags: DIFlagPrototyped, spFlags: DISPFlagOptimized)
!702 = !DIImportedEntity(tag: DW_TAG_imported_declaration, scope: !2, entity: !703, file: !687, line: 72)
!703 = !DISubprogram(name: "isspace", scope: !686, file: !686, line: 119, type: !91, flags: DIFlagPrototyped, spFlags: DISPFlagOptimized)
!704 = !DIImportedEntity(tag: DW_TAG_imported_declaration, scope: !2, entity: !705, file: !687, line: 73)
!705 = !DISubprogram(name: "isupper", scope: !686, file: !686, line: 120, type: !91, flags: DIFlagPrototyped, spFlags: DISPFlagOptimized)
!706 = !DIImportedEntity(tag: DW_TAG_imported_declaration, scope: !2, entity: !707, file: !687, line: 74)
!707 = !DISubprogram(name: "isxdigit", scope: !686, file: !686, line: 121, type: !91, flags: DIFlagPrototyped, spFlags: DISPFlagOptimized)
!708 = !DIImportedEntity(tag: DW_TAG_imported_declaration, scope: !2, entity: !709, file: !687, line: 75)
!709 = !DISubprogram(name: "tolower", scope: !686, file: !686, line: 125, type: !91, flags: DIFlagPrototyped, spFlags: DISPFlagOptimized)
!710 = !DIImportedEntity(tag: DW_TAG_imported_declaration, scope: !2, entity: !711, file: !687, line: 76)
!711 = !DISubprogram(name: "toupper", scope: !686, file: !686, line: 128, type: !91, flags: DIFlagPrototyped, spFlags: DISPFlagOptimized)
!712 = !DIImportedEntity(tag: DW_TAG_imported_declaration, scope: !2, entity: !713, file: !687, line: 87)
!713 = !DISubprogram(name: "isblank", scope: !686, file: !686, line: 137, type: !91, flags: DIFlagPrototyped, spFlags: DISPFlagOptimized)
!714 = !DIImportedEntity(tag: DW_TAG_imported_declaration, scope: !2, entity: !715, file: !716, line: 98)
!715 = !DIDerivedType(tag: DW_TAG_typedef, name: "FILE", file: !329, line: 48, baseType: !330)
!716 = !DIFile(filename: "/opt/rh/devtoolset-10/root/usr/lib/gcc/x86_64-redhat-linux/10/../../../../include/c++/10/cstdio", directory: "")
!717 = !DIImportedEntity(tag: DW_TAG_imported_declaration, scope: !2, entity: !718, file: !716, line: 99)
!718 = !DIDerivedType(tag: DW_TAG_typedef, name: "fpos_t", file: !329, line: 110, baseType: !719)
!719 = !DIDerivedType(tag: DW_TAG_typedef, name: "_G_fpos_t", file: !720, line: 25, baseType: !721)
!720 = !DIFile(filename: "/usr/include/_G_config.h", directory: "", checksumkind: CSK_MD5, checksum: "03d856db7b6447009deda6dffe18625f")
!721 = !DICompositeType(tag: DW_TAG_structure_type, file: !720, line: 21, size: 128, flags: DIFlagFwdDecl, identifier: "_ZTS9_G_fpos_t")
!722 = !DIImportedEntity(tag: DW_TAG_imported_declaration, scope: !2, entity: !723, file: !716, line: 101)
!723 = !DISubprogram(name: "clearerr", scope: !329, file: !329, line: 826, type: !724, flags: DIFlagPrototyped, spFlags: DISPFlagOptimized)
!724 = !DISubroutineType(types: !725)
!725 = !{null, !726}
!726 = !DIDerivedType(tag: DW_TAG_pointer_type, baseType: !715, size: 64)
!727 = !DIImportedEntity(tag: DW_TAG_imported_declaration, scope: !2, entity: !728, file: !716, line: 102)
!728 = !DISubprogram(name: "fclose", scope: !329, file: !329, line: 237, type: !729, flags: DIFlagPrototyped, spFlags: DISPFlagOptimized)
!729 = !DISubroutineType(types: !730)
!730 = !{!11, !726}
!731 = !DIImportedEntity(tag: DW_TAG_imported_declaration, scope: !2, entity: !732, file: !716, line: 103)
!732 = !DISubprogram(name: "feof", scope: !329, file: !329, line: 828, type: !729, flags: DIFlagPrototyped, spFlags: DISPFlagOptimized)
!733 = !DIImportedEntity(tag: DW_TAG_imported_declaration, scope: !2, entity: !734, file: !716, line: 104)
!734 = !DISubprogram(name: "ferror", scope: !329, file: !329, line: 830, type: !729, flags: DIFlagPrototyped, spFlags: DISPFlagOptimized)
!735 = !DIImportedEntity(tag: DW_TAG_imported_declaration, scope: !2, entity: !736, file: !716, line: 105)
!736 = !DISubprogram(name: "fflush", scope: !329, file: !329, line: 242, type: !729, flags: DIFlagPrototyped, spFlags: DISPFlagOptimized)
!737 = !DIImportedEntity(tag: DW_TAG_imported_declaration, scope: !2, entity: !738, file: !716, line: 106)
!738 = !DISubprogram(name: "fgetc", scope: !329, file: !329, line: 531, type: !729, flags: DIFlagPrototyped, spFlags: DISPFlagOptimized)
!739 = !DIImportedEntity(tag: DW_TAG_imported_declaration, scope: !2, entity: !740, file: !716, line: 107)
!740 = !DISubprogram(name: "fgetpos", scope: !329, file: !329, line: 798, type: !741, flags: DIFlagPrototyped, spFlags: DISPFlagOptimized)
!741 = !DISubroutineType(types: !742)
!742 = !{!11, !743, !744}
!743 = !DIDerivedType(tag: DW_TAG_restrict_type, baseType: !726)
!744 = !DIDerivedType(tag: DW_TAG_restrict_type, baseType: !745)
!745 = !DIDerivedType(tag: DW_TAG_pointer_type, baseType: !718, size: 64)
!746 = !DIImportedEntity(tag: DW_TAG_imported_declaration, scope: !2, entity: !747, file: !716, line: 108)
!747 = !DISubprogram(name: "fgets", scope: !329, file: !329, line: 622, type: !748, flags: DIFlagPrototyped, spFlags: DISPFlagOptimized)
!748 = !DISubroutineType(types: !749)
!749 = !{!22, !233, !11, !743}
!750 = !DIImportedEntity(tag: DW_TAG_imported_declaration, scope: !2, entity: !751, file: !716, line: 109)
!751 = !DISubprogram(name: "fopen", scope: !329, file: !329, line: 272, type: !752, flags: DIFlagPrototyped, spFlags: DISPFlagOptimized)
!752 = !DISubroutineType(types: !753)
!753 = !{!726, !190, !190}
!754 = !DIImportedEntity(tag: DW_TAG_imported_declaration, scope: !2, entity: !755, file: !716, line: 110)
!755 = !DISubprogram(name: "fprintf", scope: !329, file: !329, line: 356, type: !756, flags: DIFlagPrototyped, spFlags: DISPFlagOptimized)
!756 = !DISubroutineType(types: !757)
!757 = !{!11, !743, !190, null}
!758 = !DIImportedEntity(tag: DW_TAG_imported_declaration, scope: !2, entity: !759, file: !716, line: 111)
!759 = !DISubprogram(name: "fputc", scope: !329, file: !329, line: 573, type: !760, flags: DIFlagPrototyped, spFlags: DISPFlagOptimized)
!760 = !DISubroutineType(types: !761)
!761 = !{!11, !11, !726}
!762 = !DIImportedEntity(tag: DW_TAG_imported_declaration, scope: !2, entity: !763, file: !716, line: 112)
!763 = !DISubprogram(name: "fputs", scope: !329, file: !329, line: 689, type: !764, flags: DIFlagPrototyped, spFlags: DISPFlagOptimized)
!764 = !DISubroutineType(types: !765)
!765 = !{!11, !190, !743}
!766 = !DIImportedEntity(tag: DW_TAG_imported_declaration, scope: !2, entity: !767, file: !716, line: 113)
!767 = !DISubprogram(name: "fread", scope: !329, file: !329, line: 709, type: !768, flags: DIFlagPrototyped, spFlags: DISPFlagOptimized)
!768 = !DISubroutineType(types: !769)
!769 = !{!140, !770, !140, !140, !743}
!770 = !DIDerivedType(tag: DW_TAG_restrict_type, baseType: !137)
!771 = !DIImportedEntity(tag: DW_TAG_imported_declaration, scope: !2, entity: !772, file: !716, line: 114)
!772 = !DISubprogram(name: "freopen", scope: !329, file: !329, line: 278, type: !773, flags: DIFlagPrototyped, spFlags: DISPFlagOptimized)
!773 = !DISubroutineType(types: !774)
!774 = !{!726, !190, !190, !743}
!775 = !DIImportedEntity(tag: DW_TAG_imported_declaration, scope: !2, entity: !776, file: !716, line: 115)
!776 = !DISubprogram(name: "fscanf", scope: !329, file: !329, line: 425, type: !756, flags: DIFlagPrototyped, spFlags: DISPFlagOptimized)
!777 = !DIImportedEntity(tag: DW_TAG_imported_declaration, scope: !2, entity: !778, file: !716, line: 116)
!778 = !DISubprogram(name: "fseek", scope: !329, file: !329, line: 749, type: !779, flags: DIFlagPrototyped, spFlags: DISPFlagOptimized)
!779 = !DISubroutineType(types: !780)
!780 = !{!11, !726, !29, !11}
!781 = !DIImportedEntity(tag: DW_TAG_imported_declaration, scope: !2, entity: !782, file: !716, line: 117)
!782 = !DISubprogram(name: "fsetpos", scope: !329, file: !329, line: 803, type: !783, flags: DIFlagPrototyped, spFlags: DISPFlagOptimized)
!783 = !DISubroutineType(types: !784)
!784 = !{!11, !726, !785}
!785 = !DIDerivedType(tag: DW_TAG_pointer_type, baseType: !786, size: 64)
!786 = !DIDerivedType(tag: DW_TAG_const_type, baseType: !718)
!787 = !DIImportedEntity(tag: DW_TAG_imported_declaration, scope: !2, entity: !788, file: !716, line: 118)
!788 = !DISubprogram(name: "ftell", scope: !329, file: !329, line: 754, type: !789, flags: DIFlagPrototyped, spFlags: DISPFlagOptimized)
!789 = !DISubroutineType(types: !790)
!790 = !{!29, !726}
!791 = !DIImportedEntity(tag: DW_TAG_imported_declaration, scope: !2, entity: !792, file: !716, line: 119)
!792 = !DISubprogram(name: "fwrite", scope: !329, file: !329, line: 715, type: !793, flags: DIFlagPrototyped, spFlags: DISPFlagOptimized)
!793 = !DISubroutineType(types: !794)
!794 = !{!140, !795, !140, !140, !743}
!795 = !DIDerivedType(tag: DW_TAG_restrict_type, baseType: !138)
!796 = !DIImportedEntity(tag: DW_TAG_imported_declaration, scope: !2, entity: !797, file: !716, line: 120)
!797 = !DISubprogram(name: "getc", scope: !329, file: !329, line: 532, type: !729, flags: DIFlagPrototyped, spFlags: DISPFlagOptimized)
!798 = !DIImportedEntity(tag: DW_TAG_imported_declaration, scope: !2, entity: !799, file: !716, line: 121)
!799 = !DISubprogram(name: "getchar", scope: !800, file: !800, line: 44, type: !203, flags: DIFlagPrototyped, spFlags: DISPFlagOptimized)
!800 = !DIFile(filename: "/usr/include/bits/stdio.h", directory: "", checksumkind: CSK_MD5, checksum: "13c746175a1483fb79c4974bd4d7aef5")
!801 = !DIImportedEntity(tag: DW_TAG_imported_declaration, scope: !2, entity: !802, file: !716, line: 126)
!802 = !DISubprogram(name: "perror", scope: !329, file: !329, line: 846, type: !803, flags: DIFlagPrototyped, spFlags: DISPFlagOptimized)
!803 = !DISubroutineType(types: !804)
!804 = !{null, !121}
!805 = !DIImportedEntity(tag: DW_TAG_imported_declaration, scope: !2, entity: !806, file: !716, line: 127)
!806 = !DISubprogram(name: "printf", scope: !329, file: !329, line: 362, type: !807, flags: DIFlagPrototyped, spFlags: DISPFlagOptimized)
!807 = !DISubroutineType(types: !808)
!808 = !{!11, !190, null}
!809 = !DIImportedEntity(tag: DW_TAG_imported_declaration, scope: !2, entity: !810, file: !716, line: 128)
!810 = !DISubprogram(name: "putc", scope: !329, file: !329, line: 574, type: !760, flags: DIFlagPrototyped, spFlags: DISPFlagOptimized)
!811 = !DIImportedEntity(tag: DW_TAG_imported_declaration, scope: !2, entity: !812, file: !716, line: 129)
!812 = !DISubprogram(name: "putchar", scope: !800, file: !800, line: 79, type: !91, flags: DIFlagPrototyped, spFlags: DISPFlagOptimized)
!813 = !DIImportedEntity(tag: DW_TAG_imported_declaration, scope: !2, entity: !814, file: !716, line: 130)
!814 = !DISubprogram(name: "puts", scope: !329, file: !329, line: 695, type: !125, flags: DIFlagPrototyped, spFlags: DISPFlagOptimized)
!815 = !DIImportedEntity(tag: DW_TAG_imported_declaration, scope: !2, entity: !816, file: !716, line: 131)
!816 = !DISubprogram(name: "remove", scope: !329, file: !329, line: 178, type: !125, flags: DIFlagPrototyped, spFlags: DISPFlagOptimized)
!817 = !DIImportedEntity(tag: DW_TAG_imported_declaration, scope: !2, entity: !818, file: !716, line: 132)
!818 = !DISubprogram(name: "rename", scope: !329, file: !329, line: 180, type: !819, flags: DIFlagPrototyped, spFlags: DISPFlagOptimized)
!819 = !DISubroutineType(types: !820)
!820 = !{!11, !121, !121}
!821 = !DIImportedEntity(tag: DW_TAG_imported_declaration, scope: !2, entity: !822, file: !716, line: 133)
!822 = !DISubprogram(name: "rewind", scope: !329, file: !329, line: 759, type: !724, flags: DIFlagPrototyped, spFlags: DISPFlagOptimized)
!823 = !DIImportedEntity(tag: DW_TAG_imported_declaration, scope: !2, entity: !824, file: !716, line: 134)
!824 = !DISubprogram(name: "scanf", scope: !329, file: !329, line: 431, type: !807, flags: DIFlagPrototyped, spFlags: DISPFlagOptimized)
!825 = !DIImportedEntity(tag: DW_TAG_imported_declaration, scope: !2, entity: !826, file: !716, line: 135)
!826 = !DISubprogram(name: "setbuf", scope: !329, file: !329, line: 332, type: !827, flags: DIFlagPrototyped, spFlags: DISPFlagOptimized)
!827 = !DISubroutineType(types: !828)
!828 = !{null, !743, !233}
!829 = !DIImportedEntity(tag: DW_TAG_imported_declaration, scope: !2, entity: !830, file: !716, line: 136)
!830 = !DISubprogram(name: "setvbuf", scope: !329, file: !329, line: 336, type: !831, flags: DIFlagPrototyped, spFlags: DISPFlagOptimized)
!831 = !DISubroutineType(types: !832)
!832 = !{!11, !743, !233, !11, !140}
!833 = !DIImportedEntity(tag: DW_TAG_imported_declaration, scope: !2, entity: !834, file: !716, line: 137)
!834 = !DISubprogram(name: "sprintf", scope: !329, file: !329, line: 364, type: !835, flags: DIFlagPrototyped, spFlags: DISPFlagOptimized)
!835 = !DISubroutineType(types: !836)
!836 = !{!11, !233, !190, null}
!837 = !DIImportedEntity(tag: DW_TAG_imported_declaration, scope: !2, entity: !838, file: !716, line: 138)
!838 = !DISubprogram(name: "sscanf", scope: !329, file: !329, line: 433, type: !839, flags: DIFlagPrototyped, spFlags: DISPFlagOptimized)
!839 = !DISubroutineType(types: !840)
!840 = !{!11, !190, !190, null}
!841 = !DIImportedEntity(tag: DW_TAG_imported_declaration, scope: !2, entity: !842, file: !716, line: 139)
!842 = !DISubprogram(name: "tmpfile", scope: !329, file: !329, line: 195, type: !843, flags: DIFlagPrototyped, spFlags: DISPFlagOptimized)
!843 = !DISubroutineType(types: !844)
!844 = !{!726}
!845 = !DIImportedEntity(tag: DW_TAG_imported_declaration, scope: !2, entity: !846, file: !716, line: 141)
!846 = !DISubprogram(name: "tmpnam", scope: !329, file: !329, line: 209, type: !847, flags: DIFlagPrototyped, spFlags: DISPFlagOptimized)
!847 = !DISubroutineType(types: !848)
!848 = !{!22, !22}
!849 = !DIImportedEntity(tag: DW_TAG_imported_declaration, scope: !2, entity: !850, file: !716, line: 143)
!850 = !DISubprogram(name: "ungetc", scope: !329, file: !329, line: 702, type: !760, flags: DIFlagPrototyped, spFlags: DISPFlagOptimized)
!851 = !DIImportedEntity(tag: DW_TAG_imported_declaration, scope: !2, entity: !852, file: !716, line: 144)
!852 = !DISubprogram(name: "vfprintf", scope: !329, file: !329, line: 371, type: !853, flags: DIFlagPrototyped, spFlags: DISPFlagOptimized)
!853 = !DISubroutineType(types: !854)
!854 = !{!11, !743, !190, !451}
!855 = !DIImportedEntity(tag: DW_TAG_imported_declaration, scope: !2, entity: !856, file: !716, line: 145)
!856 = !DISubprogram(name: "vprintf", scope: !800, file: !800, line: 36, type: !857, flags: DIFlagPrototyped, spFlags: DISPFlagOptimized)
!857 = !DISubroutineType(types: !858)
!858 = !{!11, !190, !451}
!859 = !DIImportedEntity(tag: DW_TAG_imported_declaration, scope: !2, entity: !860, file: !716, line: 146)
!860 = !DISubprogram(name: "vsprintf", scope: !329, file: !329, line: 379, type: !861, flags: DIFlagPrototyped, spFlags: DISPFlagOptimized)
!861 = !DISubroutineType(types: !862)
!862 = !{!11, !233, !190, !451}
!863 = !DIImportedEntity(tag: DW_TAG_imported_declaration, scope: !242, entity: !864, file: !716, line: 175)
!864 = !DISubprogram(name: "snprintf", scope: !329, file: !329, line: 386, type: !865, flags: DIFlagPrototyped, spFlags: DISPFlagOptimized)
!865 = !DISubroutineType(types: !866)
!866 = !{!11, !233, !140, !190, null}
!867 = !DIImportedEntity(tag: DW_TAG_imported_declaration, scope: !242, entity: !868, file: !716, line: 176)
!868 = !DISubprogram(name: "vfscanf", scope: !329, file: !329, line: 471, type: !853, flags: DIFlagPrototyped, spFlags: DISPFlagOptimized)
!869 = !DIImportedEntity(tag: DW_TAG_imported_declaration, scope: !242, entity: !870, file: !716, line: 177)
!870 = !DISubprogram(name: "vscanf", scope: !329, file: !329, line: 479, type: !857, flags: DIFlagPrototyped, spFlags: DISPFlagOptimized)
!871 = !DIImportedEntity(tag: DW_TAG_imported_declaration, scope: !242, entity: !872, file: !716, line: 178)
!872 = !DISubprogram(name: "vsnprintf", scope: !329, file: !329, line: 390, type: !873, flags: DIFlagPrototyped, spFlags: DISPFlagOptimized)
!873 = !DISubroutineType(types: !874)
!874 = !{!11, !233, !140, !190, !451}
!875 = !DIImportedEntity(tag: DW_TAG_imported_declaration, scope: !242, entity: !876, file: !716, line: 179)
!876 = !DISubprogram(name: "vsscanf", scope: !329, file: !329, line: 483, type: !877, flags: DIFlagPrototyped, spFlags: DISPFlagOptimized)
!877 = !DISubroutineType(types: !878)
!878 = !{!11, !190, !190, !451}
!879 = !DIImportedEntity(tag: DW_TAG_imported_declaration, scope: !2, entity: !864, file: !716, line: 185)
!880 = !DIImportedEntity(tag: DW_TAG_imported_declaration, scope: !2, entity: !868, file: !716, line: 186)
!881 = !DIImportedEntity(tag: DW_TAG_imported_declaration, scope: !2, entity: !870, file: !716, line: 187)
!882 = !DIImportedEntity(tag: DW_TAG_imported_declaration, scope: !2, entity: !872, file: !716, line: 188)
!883 = !DIImportedEntity(tag: DW_TAG_imported_declaration, scope: !2, entity: !876, file: !716, line: 189)
!884 = !DIImportedEntity(tag: DW_TAG_imported_declaration, scope: !2, entity: !885, file: !890, line: 82)
!885 = !DIDerivedType(tag: DW_TAG_typedef, name: "wctrans_t", file: !886, line: 186, baseType: !887)
!886 = !DIFile(filename: "/usr/include/wctype.h", directory: "", checksumkind: CSK_MD5, checksum: "7a278e2560bb69168cb203eeeec4d913")
!887 = !DIDerivedType(tag: DW_TAG_pointer_type, baseType: !888, size: 64)
!888 = !DIDerivedType(tag: DW_TAG_const_type, baseType: !889)
!889 = !DIDerivedType(tag: DW_TAG_typedef, name: "__int32_t", file: !354, line: 40, baseType: !11)
!890 = !DIFile(filename: "/opt/rh/devtoolset-10/root/usr/lib/gcc/x86_64-redhat-linux/10/../../../../include/c++/10/cwctype", directory: "")
!891 = !DIImportedEntity(tag: DW_TAG_imported_declaration, scope: !2, entity: !892, file: !890, line: 83)
!892 = !DIDerivedType(tag: DW_TAG_typedef, name: "wctype_t", file: !886, line: 52, baseType: !142)
!893 = !DIImportedEntity(tag: DW_TAG_imported_declaration, scope: !2, entity: !318, file: !890, line: 84)
!894 = !DIImportedEntity(tag: DW_TAG_imported_declaration, scope: !2, entity: !895, file: !890, line: 86)
!895 = !DISubprogram(name: "iswalnum", scope: !886, file: !886, line: 111, type: !553, flags: DIFlagPrototyped, spFlags: DISPFlagOptimized)
!896 = !DIImportedEntity(tag: DW_TAG_imported_declaration, scope: !2, entity: !897, file: !890, line: 87)
!897 = !DISubprogram(name: "iswalpha", scope: !886, file: !886, line: 117, type: !553, flags: DIFlagPrototyped, spFlags: DISPFlagOptimized)
!898 = !DIImportedEntity(tag: DW_TAG_imported_declaration, scope: !2, entity: !899, file: !890, line: 89)
!899 = !DISubprogram(name: "iswblank", scope: !886, file: !886, line: 162, type: !553, flags: DIFlagPrototyped, spFlags: DISPFlagOptimized)
!900 = !DIImportedEntity(tag: DW_TAG_imported_declaration, scope: !2, entity: !901, file: !890, line: 91)
!901 = !DISubprogram(name: "iswcntrl", scope: !886, file: !886, line: 120, type: !553, flags: DIFlagPrototyped, spFlags: DISPFlagOptimized)
!902 = !DIImportedEntity(tag: DW_TAG_imported_declaration, scope: !2, entity: !903, file: !890, line: 92)
!903 = !DISubprogram(name: "iswctype", scope: !886, file: !886, line: 175, type: !904, flags: DIFlagPrototyped, spFlags: DISPFlagOptimized)
!904 = !DISubroutineType(types: !905)
!905 = !{!11, !318, !892}
!906 = !DIImportedEntity(tag: DW_TAG_imported_declaration, scope: !2, entity: !907, file: !890, line: 93)
!907 = !DISubprogram(name: "iswdigit", scope: !886, file: !886, line: 124, type: !553, flags: DIFlagPrototyped, spFlags: DISPFlagOptimized)
!908 = !DIImportedEntity(tag: DW_TAG_imported_declaration, scope: !2, entity: !909, file: !890, line: 94)
!909 = !DISubprogram(name: "iswgraph", scope: !886, file: !886, line: 128, type: !553, flags: DIFlagPrototyped, spFlags: DISPFlagOptimized)
!910 = !DIImportedEntity(tag: DW_TAG_imported_declaration, scope: !2, entity: !911, file: !890, line: 95)
!911 = !DISubprogram(name: "iswlower", scope: !886, file: !886, line: 133, type: !553, flags: DIFlagPrototyped, spFlags: DISPFlagOptimized)
!912 = !DIImportedEntity(tag: DW_TAG_imported_declaration, scope: !2, entity: !913, file: !890, line: 96)
!913 = !DISubprogram(name: "iswprint", scope: !886, file: !886, line: 136, type: !553, flags: DIFlagPrototyped, spFlags: DISPFlagOptimized)
!914 = !DIImportedEntity(tag: DW_TAG_imported_declaration, scope: !2, entity: !915, file: !890, line: 97)
!915 = !DISubprogram(name: "iswpunct", scope: !886, file: !886, line: 141, type: !553, flags: DIFlagPrototyped, spFlags: DISPFlagOptimized)
!916 = !DIImportedEntity(tag: DW_TAG_imported_declaration, scope: !2, entity: !917, file: !890, line: 98)
!917 = !DISubprogram(name: "iswspace", scope: !886, file: !886, line: 146, type: !553, flags: DIFlagPrototyped, spFlags: DISPFlagOptimized)
!918 = !DIImportedEntity(tag: DW_TAG_imported_declaration, scope: !2, entity: !919, file: !890, line: 99)
!919 = !DISubprogram(name: "iswupper", scope: !886, file: !886, line: 151, type: !553, flags: DIFlagPrototyped, spFlags: DISPFlagOptimized)
!920 = !DIImportedEntity(tag: DW_TAG_imported_declaration, scope: !2, entity: !921, file: !890, line: 100)
!921 = !DISubprogram(name: "iswxdigit", scope: !886, file: !886, line: 156, type: !553, flags: DIFlagPrototyped, spFlags: DISPFlagOptimized)
!922 = !DIImportedEntity(tag: DW_TAG_imported_declaration, scope: !2, entity: !923, file: !890, line: 101)
!923 = !DISubprogram(name: "towctrans", scope: !886, file: !886, line: 221, type: !924, flags: DIFlagPrototyped, spFlags: DISPFlagOptimized)
!924 = !DISubroutineType(types: !925)
!925 = !{!318, !318, !885}
!926 = !DIImportedEntity(tag: DW_TAG_imported_declaration, scope: !2, entity: !927, file: !890, line: 102)
!927 = !DISubprogram(name: "towlower", scope: !886, file: !886, line: 194, type: !928, flags: DIFlagPrototyped, spFlags: DISPFlagOptimized)
!928 = !DISubroutineType(types: !929)
!929 = !{!318, !318}
!930 = !DIImportedEntity(tag: DW_TAG_imported_declaration, scope: !2, entity: !931, file: !890, line: 103)
!931 = !DISubprogram(name: "towupper", scope: !886, file: !886, line: 197, type: !928, flags: DIFlagPrototyped, spFlags: DISPFlagOptimized)
!932 = !DIImportedEntity(tag: DW_TAG_imported_declaration, scope: !2, entity: !933, file: !890, line: 104)
!933 = !DISubprogram(name: "wctrans", scope: !886, file: !886, line: 218, type: !934, flags: DIFlagPrototyped, spFlags: DISPFlagOptimized)
!934 = !DISubroutineType(types: !935)
!935 = !{!885, !121}
!936 = !DIImportedEntity(tag: DW_TAG_imported_declaration, scope: !2, entity: !937, file: !890, line: 105)
!937 = !DISubprogram(name: "wctype", scope: !886, file: !886, line: 171, type: !938, flags: DIFlagPrototyped, spFlags: DISPFlagOptimized)
!938 = !DISubroutineType(types: !939)
!939 = !{!892, !121}
!940 = !{i32 7, !"Dwarf Version", i32 5}
!941 = !{i32 2, !"Debug Info Version", i32 3}
!942 = !{i32 1, !"wchar_size", i32 4}
!943 = !{i32 7, !"uwtable", i32 1}
!944 = !{!"clang version 14.0.6 (/afs/ece/project/seth_group/ziqiliu/uli-opencilk-project/clang f7f98d0501c44ae6a93ca00ec068035f8853103e)"}
!945 = distinct !DISubprogram(name: "startup_cilk", linkageName: "_Z12startup_cilkv", scope: !8, file: !8, line: 39, type: !106, scopeLine: 39, flags: DIFlagPrototyped | DIFlagAllCallsDescribed, spFlags: DISPFlagDefinition | DISPFlagOptimized, unit: !7, retainedNodes: !946)
!946 = !{!947, !948, !950, !951, !952, !953}
!947 = !DILocalVariable(name: "g", scope: !945, file: !8, line: 40, type: !120)
!948 = !DILocalVariable(name: "__init", scope: !949, type: !11, flags: DIFlagArtificial)
!949 = distinct !DILexicalBlock(scope: !945, file: !8, line: 41, column: 3)
!950 = !DILocalVariable(name: "__limit", scope: !949, type: !11, flags: DIFlagArtificial)
!951 = !DILocalVariable(name: "__begin", scope: !949, type: !11, flags: DIFlagArtificial)
!952 = !DILocalVariable(name: "__end", scope: !949, type: !11, flags: DIFlagArtificial)
!953 = !DILocalVariable(name: "i", scope: !954, file: !8, line: 41, type: !11)
!954 = distinct !DILexicalBlock(scope: !949, file: !8, line: 41, column: 3)
!955 = !DILocation(line: 0, scope: !945)
!956 = !DILocation(line: 40, column: 3, scope: !945)
!957 = !DILocation(line: 40, column: 10, scope: !945)
!958 = !{!959, !959, i64 0}
!959 = !{!"double", !960, i64 0}
!960 = !{!"omnipotent char", !961, i64 0}
!961 = !{!"Simple C++ TBAA"}
!962 = !DILocation(line: 0, scope: !949)
!963 = !DILocation(line: 41, column: 24, scope: !949)
!964 = !DILocation(line: 41, column: 3, scope: !949)
!965 = !DILocation(line: 0, scope: !954)
!966 = !DILocation(line: 42, column: 6, scope: !967)
!967 = distinct !DILexicalBlock(scope: !954, file: !8, line: 41, column: 36)
!968 = !DILocation(line: 43, column: 3, scope: !967)
!969 = !DILocation(line: 41, column: 32, scope: !954)
!970 = !DILocation(line: 41, column: 24, scope: !954)
!971 = !DILocation(line: 41, column: 3, scope: !954)
!972 = distinct !{!972, !964, !973, !974}
!973 = !DILocation(line: 43, column: 3, scope: !949)
!974 = !{!"tapir.loop.spawn.strategy", i32 1}
!975 = !DILocation(line: 44, column: 1, scope: !945)
!976 = distinct !DISubprogram(name: "sample_qsort", linkageName: "_Z12sample_qsortPiS_", scope: !8, file: !8, line: 52, type: !977, scopeLine: 52, flags: DIFlagPrototyped | DIFlagAllCallsDescribed, spFlags: DISPFlagDefinition | DISPFlagOptimized, unit: !7, retainedNodes: !980)
!977 = !DISubroutineType(types: !978)
!978 = !{null, !979, !979}
!979 = !DIDerivedType(tag: DW_TAG_pointer_type, baseType: !11, size: 64)
!980 = !{!981, !982, !983}
!981 = !DILocalVariable(name: "begin", arg: 1, scope: !976, file: !8, line: 52, type: !979)
!982 = !DILocalVariable(name: "end", arg: 2, scope: !976, file: !8, line: 52, type: !979)
!983 = !DILocalVariable(name: "middle", scope: !984, file: !8, line: 55, type: !979)
!984 = distinct !DILexicalBlock(scope: !985, file: !8, line: 53, column: 21)
!985 = distinct !DILexicalBlock(scope: !976, file: !8, line: 53, column: 7)
!986 = !DILocation(line: 0, scope: !984)
!987 = !DILocation(line: 0, scope: !976)
!988 = !DILocation(line: 53, column: 13, scope: !985)
!989 = !DILocation(line: 53, column: 7, scope: !976)
!990 = !DILocalVariable(name: "__fn", arg: 1, scope: !991, file: !32, line: 170, type: !64)
!991 = distinct !DISubprogram(name: "bind2nd<std::less<int>, int>", linkageName: "_ZSt7bind2ndISt4lessIiEiESt9binder2ndIT_ERKS3_RKT0_", scope: !2, file: !32, line: 170, type: !992, scopeLine: 171, flags: DIFlagPrototyped | DIFlagAllCallsDescribed, spFlags: DISPFlagDefinition | DISPFlagOptimized, unit: !7, templateParams: !996, retainedNodes: !994)
!992 = !DISubroutineType(types: !993)
!993 = !{!31, !64, !54}
!994 = !{!990, !995}
!995 = !DILocalVariable(name: "__x", arg: 2, scope: !991, file: !32, line: 170, type: !54)
!996 = !{!81, !57}
!997 = !DILocation(line: 0, scope: !991, inlinedAt: !998)
!998 = distinct !DILocation(line: 56, column: 9, scope: !984)
!999 = !DILocation(line: 173, column: 53, scope: !991, inlinedAt: !998)
!1000 = !{!1001, !1001, i64 0}
!1001 = !{!"int", !960, i64 0}
!1002 = !DILocalVariable(name: "__pred", arg: 3, scope: !1003, file: !1004, line: 4664, type: !31)
!1003 = distinct !DISubprogram(name: "partition<int *, std::binder2nd<std::less<int> > >", linkageName: "_ZSt9partitionIPiSt9binder2ndISt4lessIiEEET_S5_S5_T0_", scope: !2, file: !1004, line: 4663, type: !1005, scopeLine: 4665, flags: DIFlagPrototyped | DIFlagAllCallsDescribed, spFlags: DISPFlagDefinition | DISPFlagOptimized, unit: !7, templateParams: !1010, retainedNodes: !1007)
!1004 = !DIFile(filename: "/opt/rh/devtoolset-10/root/usr/lib/gcc/x86_64-redhat-linux/10/../../../../include/c++/10/bits/stl_algo.h", directory: "", checksumkind: CSK_MD5, checksum: "ba77bed105392abd845390163a5ce81e")
!1005 = !DISubroutineType(types: !1006)
!1006 = !{!979, !979, !979, !31}
!1007 = !{!1008, !1009, !1002}
!1008 = !DILocalVariable(name: "__first", arg: 1, scope: !1003, file: !1004, line: 4663, type: !979)
!1009 = !DILocalVariable(name: "__last", arg: 2, scope: !1003, file: !1004, line: 4663, type: !979)
!1010 = !{!1011, !1012}
!1011 = !DITemplateTypeParameter(name: "_ForwardIterator", type: !979)
!1012 = !DITemplateTypeParameter(name: "_Predicate", type: !31)
!1013 = !DILocation(line: 0, scope: !1003, inlinedAt: !1014)
!1014 = distinct !DILocation(line: 55, column: 20, scope: !984)
!1015 = !DILocalVariable(name: "__first", arg: 1, scope: !1016, file: !1004, line: 1507, type: !979)
!1016 = distinct !DISubprogram(name: "__partition<int *, std::binder2nd<std::less<int> > >", linkageName: "_ZSt11__partitionIPiSt9binder2ndISt4lessIiEEET_S5_S5_T0_St26bidirectional_iterator_tag", scope: !2, file: !1004, line: 1507, type: !1017, scopeLine: 1509, flags: DIFlagPrototyped | DIFlagAllCallsDescribed, spFlags: DISPFlagDefinition | DISPFlagOptimized, unit: !7, templateParams: !1031, retainedNodes: !1027)
!1017 = !DISubroutineType(types: !1018)
!1018 = !{!979, !979, !979, !31, !1019}
!1019 = distinct !DICompositeType(tag: DW_TAG_structure_type, name: "bidirectional_iterator_tag", scope: !2, file: !1020, line: 103, size: 8, flags: DIFlagTypePassByValue, elements: !1021, identifier: "_ZTSSt26bidirectional_iterator_tag")
!1020 = !DIFile(filename: "/opt/rh/devtoolset-10/root/usr/lib/gcc/x86_64-redhat-linux/10/../../../../include/c++/10/bits/stl_iterator_base_types.h", directory: "")
!1021 = !{!1022}
!1022 = !DIDerivedType(tag: DW_TAG_inheritance, scope: !1019, baseType: !1023, extraData: i32 0)
!1023 = distinct !DICompositeType(tag: DW_TAG_structure_type, name: "forward_iterator_tag", scope: !2, file: !1020, line: 99, size: 8, flags: DIFlagTypePassByValue, elements: !1024, identifier: "_ZTSSt20forward_iterator_tag")
!1024 = !{!1025}
!1025 = !DIDerivedType(tag: DW_TAG_inheritance, scope: !1023, baseType: !1026, extraData: i32 0)
!1026 = distinct !DICompositeType(tag: DW_TAG_structure_type, name: "input_iterator_tag", scope: !2, file: !1020, line: 93, size: 8, flags: DIFlagTypePassByValue, elements: !37, identifier: "_ZTSSt18input_iterator_tag")
!1027 = !{!1015, !1028, !1029, !1030}
!1028 = !DILocalVariable(name: "__last", arg: 2, scope: !1016, file: !1004, line: 1507, type: !979)
!1029 = !DILocalVariable(name: "__pred", arg: 3, scope: !1016, file: !1004, line: 1508, type: !31)
!1030 = !DILocalVariable(arg: 4, scope: !1016, file: !1004, line: 1508, type: !1019)
!1031 = !{!1032, !1012}
!1032 = !DITemplateTypeParameter(name: "_BidirectionalIterator", type: !979)
!1033 = !DILocation(line: 0, scope: !1016, inlinedAt: !1034)
!1034 = distinct !DILocation(line: 4673, column: 14, scope: !1003, inlinedAt: !1014)
!1035 = !DILocation(line: 1508, column: 14, scope: !1016, inlinedAt: !1034)
!1036 = !DILocation(line: 1508, column: 48, scope: !1016, inlinedAt: !1034)
!1037 = !DILocation(line: 1513, column: 18, scope: !1038, inlinedAt: !1034)
!1038 = distinct !DILexicalBlock(scope: !1039, file: !1004, line: 1513, column: 10)
!1039 = distinct !DILexicalBlock(scope: !1016, file: !1004, line: 1511, column: 2)
!1040 = !DILocation(line: 1513, column: 10, scope: !1039, inlinedAt: !1034)
!1041 = !DILocalVariable(name: "this", arg: 1, scope: !1042, type: !1045, flags: DIFlagArtificial | DIFlagObjectPointer)
!1042 = distinct !DISubprogram(name: "operator()", linkageName: "_ZNKSt9binder2ndISt4lessIiEEclERi", scope: !31, file: !32, line: 163, type: !77, scopeLine: 164, flags: DIFlagPrototyped | DIFlagAllCallsDescribed, spFlags: DISPFlagDefinition | DISPFlagOptimized, unit: !7, declaration: !76, retainedNodes: !1043)
!1043 = !{!1041, !1044}
!1044 = !DILocalVariable(name: "__x", arg: 2, scope: !1042, file: !32, line: 163, type: !79)
!1045 = !DIDerivedType(tag: DW_TAG_pointer_type, baseType: !72, size: 64)
!1046 = !DILocation(line: 0, scope: !1042, inlinedAt: !1047)
!1047 = distinct !DILocation(line: 1515, column: 15, scope: !1048, inlinedAt: !1034)
!1048 = distinct !DILexicalBlock(scope: !1038, file: !1004, line: 1515, column: 15)
!1049 = !DILocalVariable(name: "this", arg: 1, scope: !1050, type: !1054, flags: DIFlagArtificial | DIFlagObjectPointer)
!1050 = distinct !DISubprogram(name: "operator()", linkageName: "_ZNKSt4lessIiEclERKiS2_", scope: !42, file: !36, line: 385, type: !50, scopeLine: 386, flags: DIFlagPrototyped | DIFlagAllCallsDescribed, spFlags: DISPFlagDefinition | DISPFlagOptimized, unit: !7, declaration: !49, retainedNodes: !1051)
!1051 = !{!1049, !1052, !1053}
!1052 = !DILocalVariable(name: "__x", arg: 2, scope: !1050, file: !36, line: 385, type: !54)
!1053 = !DILocalVariable(name: "__y", arg: 3, scope: !1050, file: !36, line: 385, type: !54)
!1054 = !DIDerivedType(tag: DW_TAG_pointer_type, baseType: !53, size: 64)
!1055 = !DILocation(line: 0, scope: !1050, inlinedAt: !1056)
!1056 = distinct !DILocation(line: 164, column: 16, scope: !1042, inlinedAt: !1047)
!1057 = !DILocation(line: 386, column: 16, scope: !1050, inlinedAt: !1056)
!1058 = !DILocation(line: 386, column: 20, scope: !1050, inlinedAt: !1056)
!1059 = !DILocation(line: 1515, column: 15, scope: !1038, inlinedAt: !1034)
!1060 = !DILocation(line: 1516, column: 8, scope: !1048, inlinedAt: !1034)
!1061 = distinct !{!1061, !1062, !1063, !1064}
!1062 = !DILocation(line: 1512, column: 4, scope: !1039, inlinedAt: !1034)
!1063 = !DILocation(line: 1518, column: 8, scope: !1039, inlinedAt: !1034)
!1064 = !{!"llvm.loop.mustprogress"}
!1065 = !DILocation(line: 0, scope: !1039, inlinedAt: !1034)
!1066 = !DILocation(line: 1521, column: 18, scope: !1067, inlinedAt: !1034)
!1067 = distinct !DILexicalBlock(scope: !1039, file: !1004, line: 1521, column: 10)
!1068 = !DILocation(line: 1521, column: 10, scope: !1039, inlinedAt: !1034)
!1069 = !DILocation(line: 0, scope: !1042, inlinedAt: !1070)
!1070 = distinct !DILocation(line: 1523, column: 21, scope: !1071, inlinedAt: !1034)
!1071 = distinct !DILexicalBlock(scope: !1067, file: !1004, line: 1523, column: 15)
!1072 = !DILocation(line: 0, scope: !1050, inlinedAt: !1073)
!1073 = distinct !DILocation(line: 164, column: 16, scope: !1042, inlinedAt: !1070)
!1074 = !DILocation(line: 386, column: 16, scope: !1050, inlinedAt: !1073)
!1075 = !DILocation(line: 386, column: 20, scope: !1050, inlinedAt: !1073)
!1076 = !DILocation(line: 1523, column: 15, scope: !1067, inlinedAt: !1034)
!1077 = distinct !{!1077, !1078, !1079, !1064}
!1078 = !DILocation(line: 1520, column: 4, scope: !1039, inlinedAt: !1034)
!1079 = !DILocation(line: 1526, column: 8, scope: !1039, inlinedAt: !1034)
!1080 = !DILocalVariable(name: "__a", arg: 1, scope: !1081, file: !1085, line: 382, type: !979)
!1081 = distinct !DISubprogram(name: "iter_swap<int *, int *>", linkageName: "_ZSt9iter_swapIPiS0_EvT_T0_", scope: !2, file: !1082, line: 152, type: !977, scopeLine: 153, flags: DIFlagPrototyped | DIFlagAllCallsDescribed, spFlags: DISPFlagDefinition | DISPFlagOptimized, unit: !7, templateParams: !1086, retainedNodes: !1083)
!1082 = !DIFile(filename: "/opt/rh/devtoolset-10/root/usr/lib/gcc/x86_64-redhat-linux/10/../../../../include/c++/10/bits/stl_algobase.h", directory: "", checksumkind: CSK_MD5, checksum: "04fa19fe128a158dce2a6300504e3aba")
!1083 = !{!1080, !1084}
!1084 = !DILocalVariable(name: "__b", arg: 2, scope: !1081, file: !1085, line: 382, type: !979)
!1085 = !DIFile(filename: "/opt/rh/devtoolset-10/root/usr/lib/gcc/x86_64-redhat-linux/10/../../../../include/c++/10/bits/algorithmfwd.h", directory: "")
!1086 = !{!1087, !1088}
!1087 = !DITemplateTypeParameter(name: "_FIter1", type: !979)
!1088 = !DITemplateTypeParameter(name: "_FIter2", type: !979)
!1089 = !DILocation(line: 0, scope: !1081, inlinedAt: !1090)
!1090 = distinct !DILocation(line: 1527, column: 4, scope: !1039, inlinedAt: !1034)
!1091 = !DILocalVariable(name: "__a", arg: 1, scope: !1092, file: !1093, line: 189, type: !1102)
!1092 = distinct !DISubprogram(name: "swap<int>", linkageName: "_ZSt4swapIiENSt9enable_ifIXsr6__and_ISt6__not_ISt15__is_tuple_likeIT_EESt21is_move_constructibleIS3_ESt18is_move_assignableIS3_EEE5valueEvE4typeERS3_SC_", scope: !2, file: !1093, line: 189, type: !1094, scopeLine: 192, flags: DIFlagPrototyped | DIFlagAllCallsDescribed, spFlags: DISPFlagDefinition | DISPFlagOptimized, unit: !7, templateParams: !56, retainedNodes: !1103)
!1093 = !DIFile(filename: "/opt/rh/devtoolset-10/root/usr/lib/gcc/x86_64-redhat-linux/10/../../../../include/c++/10/bits/move.h", directory: "", checksumkind: CSK_MD5, checksum: "394c4a570b254b49ffbdd566bf8a6076")
!1094 = !DISubroutineType(types: !1095)
!1095 = !{!1096, !1102, !1102}
!1096 = !DIDerivedType(tag: DW_TAG_typedef, name: "type", scope: !1098, file: !1097, line: 2188, baseType: null)
!1097 = !DIFile(filename: "/opt/rh/devtoolset-10/root/usr/lib/gcc/x86_64-redhat-linux/10/../../../../include/c++/10/type_traits", directory: "")
!1098 = distinct !DICompositeType(tag: DW_TAG_structure_type, name: "enable_if<true, void>", scope: !2, file: !1097, line: 2187, size: 8, flags: DIFlagTypePassByValue, elements: !37, templateParams: !1099, identifier: "_ZTSSt9enable_ifILb1EvE")
!1099 = !{!1100, !1101}
!1100 = !DITemplateValueParameter(type: !24, value: i8 1)
!1101 = !DITemplateTypeParameter(name: "_Tp", type: null, defaulted: true)
!1102 = !DIDerivedType(tag: DW_TAG_reference_type, baseType: !11, size: 64)
!1103 = !{!1091, !1104, !1105}
!1104 = !DILocalVariable(name: "__b", arg: 2, scope: !1092, file: !1093, line: 189, type: !1102)
!1105 = !DILocalVariable(name: "__tmp", scope: !1092, file: !1093, line: 197, type: !11)
!1106 = !DILocation(line: 0, scope: !1092, inlinedAt: !1107)
!1107 = distinct !DILocation(line: 182, column: 7, scope: !1081, inlinedAt: !1090)
!1108 = !DILocation(line: 198, column: 11, scope: !1092, inlinedAt: !1107)
!1109 = !DILocation(line: 199, column: 11, scope: !1092, inlinedAt: !1107)
!1110 = !DILocation(line: 1528, column: 4, scope: !1039, inlinedAt: !1034)
!1111 = distinct !{!1111, !1112, !1113, !1064}
!1112 = !DILocation(line: 1510, column: 7, scope: !1016, inlinedAt: !1034)
!1113 = !DILocation(line: 1529, column: 2, scope: !1016, inlinedAt: !1034)
!1114 = !DILocation(line: 198, column: 13, scope: !1092, inlinedAt: !1115)
!1115 = distinct !DILocation(line: 58, column: 5, scope: !984)
!1116 = !DILocation(line: 0, scope: !1092, inlinedAt: !1115)
!1117 = !DILocation(line: 197, column: 19, scope: !1092, inlinedAt: !1115)
!1118 = !DILocation(line: 198, column: 11, scope: !1092, inlinedAt: !1115)
!1119 = !DILocation(line: 199, column: 11, scope: !1092, inlinedAt: !1115)
!1120 = !DILocation(line: 60, column: 16, scope: !984)
!1121 = !DILocation(line: 61, column: 18, scope: !984)
!1122 = !DILocation(line: 64, column: 1, scope: !976)
!1123 = distinct !DISubprogram(name: "todval", linkageName: "_Z6todvalP7timeval", scope: !8, file: !8, line: 66, type: !1124, scopeLine: 66, flags: DIFlagPrototyped | DIFlagAllCallsDescribed, spFlags: DISPFlagDefinition | DISPFlagOptimized, unit: !7, retainedNodes: !1134)
!1124 = !DISubroutineType(types: !1125)
!1125 = !{!271, !1126}
!1126 = !DIDerivedType(tag: DW_TAG_pointer_type, baseType: !1127, size: 64)
!1127 = distinct !DICompositeType(tag: DW_TAG_structure_type, name: "timeval", file: !1128, line: 30, size: 128, flags: DIFlagTypePassByValue, elements: !1129, identifier: "_ZTS7timeval")
!1128 = !DIFile(filename: "/usr/include/bits/time.h", directory: "", checksumkind: CSK_MD5, checksum: "7275d681a2390320bc78ae3cf595b8d2")
!1129 = !{!1130, !1132}
!1130 = !DIDerivedType(tag: DW_TAG_member, name: "tv_sec", scope: !1127, file: !1128, line: 32, baseType: !1131, size: 64)
!1131 = !DIDerivedType(tag: DW_TAG_typedef, name: "__time_t", file: !354, line: 148, baseType: !29)
!1132 = !DIDerivedType(tag: DW_TAG_member, name: "tv_usec", scope: !1127, file: !1128, line: 33, baseType: !1133, size: 64, offset: 64)
!1133 = !DIDerivedType(tag: DW_TAG_typedef, name: "__suseconds_t", file: !354, line: 150, baseType: !29)
!1134 = !{!1135}
!1135 = !DILocalVariable(name: "tp", arg: 1, scope: !1123, file: !8, line: 66, type: !1126)
!1136 = !DILocation(line: 0, scope: !1123)
!1137 = !DILocation(line: 67, column: 16, scope: !1123)
!1138 = !{!1139, !1140, i64 0}
!1139 = !{!"_ZTS7timeval", !1140, i64 0, !1140, i64 8}
!1140 = !{!"long", !960, i64 0}
!1141 = !DILocation(line: 67, column: 30, scope: !1123)
!1142 = !DILocation(line: 67, column: 43, scope: !1123)
!1143 = !{!1139, !1140, i64 8}
!1144 = !DILocation(line: 67, column: 37, scope: !1123)
!1145 = !DILocation(line: 67, column: 5, scope: !1123)
!1146 = distinct !DISubprogram(name: "qmain", linkageName: "_Z5qmainii", scope: !8, file: !8, line: 71, type: !1147, scopeLine: 71, flags: DIFlagPrototyped | DIFlagAllCallsDescribed, spFlags: DISPFlagDefinition | DISPFlagOptimized, unit: !7, retainedNodes: !1149)
!1147 = !DISubroutineType(types: !1148)
!1148 = !{!11, !11, !11}
!1149 = !{!1150, !1151, !1152, !1153, !1155, !1159, !1160, !1161, !1162}
!1150 = !DILocalVariable(name: "n", arg: 1, scope: !1146, file: !8, line: 71, type: !11)
!1151 = !DILocalVariable(name: "round", arg: 2, scope: !1146, file: !8, line: 71, type: !11)
!1152 = !DILocalVariable(name: "a", scope: !1146, file: !8, line: 73, type: !979)
!1153 = !DILocalVariable(name: "r", scope: !1154, file: !8, line: 75, type: !11)
!1154 = distinct !DILexicalBlock(scope: !1146, file: !8, line: 75, column: 3)
!1155 = !DILocalVariable(name: "i", scope: !1156, file: !8, line: 76, type: !11)
!1156 = distinct !DILexicalBlock(scope: !1157, file: !8, line: 76, column: 5)
!1157 = distinct !DILexicalBlock(scope: !1158, file: !8, line: 75, column: 30)
!1158 = distinct !DILexicalBlock(scope: !1154, file: !8, line: 75, column: 3)
!1159 = !DILocalVariable(name: "t1", scope: !1157, file: !8, line: 83, type: !1127)
!1160 = !DILocalVariable(name: "t2", scope: !1157, file: !8, line: 83, type: !1127)
!1161 = !DILocalVariable(name: "runtime_ms", scope: !1157, file: !8, line: 87, type: !271)
!1162 = !DILocalVariable(name: "i", scope: !1163, file: !8, line: 91, type: !11)
!1163 = distinct !DILexicalBlock(scope: !1157, file: !8, line: 91, column: 5)
!1164 = !DILocation(line: 0, scope: !1146)
!1165 = !DILocation(line: 73, column: 20, scope: !1146)
!1166 = !DILocation(line: 73, column: 12, scope: !1146)
!1167 = !DILocation(line: 0, scope: !1154)
!1168 = !DILocation(line: 75, column: 17, scope: !1158)
!1169 = !DILocation(line: 75, column: 3, scope: !1154)
!1170 = !DILocation(line: 0, scope: !1156)
!1171 = !DILocation(line: 76, column: 5, scope: !1156)
!1172 = !DILocation(line: 76, column: 28, scope: !1173)
!1173 = distinct !DILexicalBlock(scope: !1156, file: !8, line: 76, column: 5)
!1174 = !DILocation(line: 77, column: 12, scope: !1173)
!1175 = distinct !{!1175, !1171, !1176, !1064, !1177}
!1176 = !DILocation(line: 77, column: 14, scope: !1156)
!1177 = !{!"llvm.loop.isvectorized", i32 1}
!1178 = distinct !{!1178, !1179}
!1179 = !{!"llvm.loop.unroll.disable"}
!1180 = !DILocalVariable(name: "__first", arg: 1, scope: !1181, file: !1004, line: 4587, type: !979)
!1181 = distinct !DISubprogram(name: "random_shuffle<int *>", linkageName: "_ZSt14random_shuffleIPiEvT_S1_", scope: !2, file: !1004, line: 4587, type: !977, scopeLine: 4588, flags: DIFlagPrototyped | DIFlagAllCallsDescribed, spFlags: DISPFlagDefinition | DISPFlagOptimized, unit: !7, templateParams: !1190, retainedNodes: !1182)
!1182 = !{!1180, !1183, !1184, !1187}
!1183 = !DILocalVariable(name: "__last", arg: 2, scope: !1181, file: !1004, line: 4587, type: !979)
!1184 = !DILocalVariable(name: "__i", scope: !1185, file: !1004, line: 4595, type: !979)
!1185 = distinct !DILexicalBlock(scope: !1186, file: !1004, line: 4595, column: 2)
!1186 = distinct !DILexicalBlock(scope: !1181, file: !1004, line: 4594, column: 11)
!1187 = !DILocalVariable(name: "__j", scope: !1188, file: !1004, line: 4598, type: !979)
!1188 = distinct !DILexicalBlock(scope: !1189, file: !1004, line: 4596, column: 4)
!1189 = distinct !DILexicalBlock(scope: !1185, file: !1004, line: 4595, column: 2)
!1190 = !{!1191}
!1191 = !DITemplateTypeParameter(name: "_RandomAccessIterator", type: !979)
!1192 = !DILocation(line: 0, scope: !1181, inlinedAt: !1193)
!1193 = distinct !DILocation(line: 79, column: 5, scope: !1157)
!1194 = !DILocation(line: 0, scope: !1185, inlinedAt: !1193)
!1195 = !DILocation(line: 4594, column: 11, scope: !1181, inlinedAt: !1193)
!1196 = !DILocation(line: 4599, column: 8, scope: !1188, inlinedAt: !1193)
!1197 = !DILocation(line: 4599, column: 28, scope: !1188, inlinedAt: !1193)
!1198 = !DILocation(line: 4599, column: 39, scope: !1188, inlinedAt: !1193)
!1199 = !DILocation(line: 4599, column: 20, scope: !1188, inlinedAt: !1193)
!1200 = !DILocation(line: 4599, column: 6, scope: !1188, inlinedAt: !1193)
!1201 = !DILocation(line: 0, scope: !1188, inlinedAt: !1193)
!1202 = !DILocation(line: 4600, column: 14, scope: !1203, inlinedAt: !1193)
!1203 = distinct !DILexicalBlock(scope: !1188, file: !1004, line: 4600, column: 10)
!1204 = !DILocation(line: 4600, column: 10, scope: !1188, inlinedAt: !1193)
!1205 = !DILocation(line: 0, scope: !1081, inlinedAt: !1206)
!1206 = distinct !DILocation(line: 4601, column: 8, scope: !1203, inlinedAt: !1193)
!1207 = !DILocation(line: 0, scope: !1092, inlinedAt: !1208)
!1208 = distinct !DILocation(line: 182, column: 7, scope: !1081, inlinedAt: !1206)
!1209 = !DILocation(line: 197, column: 19, scope: !1092, inlinedAt: !1208)
!1210 = !DILocation(line: 198, column: 13, scope: !1092, inlinedAt: !1208)
!1211 = !DILocation(line: 198, column: 11, scope: !1092, inlinedAt: !1208)
!1212 = !DILocation(line: 199, column: 11, scope: !1092, inlinedAt: !1208)
!1213 = !DILocation(line: 4601, column: 8, scope: !1203, inlinedAt: !1193)
!1214 = !DILocation(line: 4595, column: 52, scope: !1189, inlinedAt: !1193)
!1215 = !DILocation(line: 4595, column: 2, scope: !1185, inlinedAt: !1193)
!1216 = distinct !{!1216, !1215, !1217, !1064}
!1217 = !DILocation(line: 4602, column: 4, scope: !1185, inlinedAt: !1193)
!1218 = !DILocalVariable(name: "__out", arg: 1, scope: !1219, file: !1220, line: 606, type: !1223)
!1219 = distinct !DISubprogram(name: "operator<<<std::char_traits<char> >", linkageName: "_ZStlsISt11char_traitsIcEERSt13basic_ostreamIcT_ES5_PKc", scope: !2, file: !1220, line: 606, type: !1221, scopeLine: 607, flags: DIFlagPrototyped | DIFlagAllCallsDescribed, spFlags: DISPFlagDefinition | DISPFlagOptimized, unit: !7, templateParams: !1228, retainedNodes: !1226)
!1220 = !DIFile(filename: "/opt/rh/devtoolset-10/root/usr/lib/gcc/x86_64-redhat-linux/10/../../../../include/c++/10/ostream", directory: "")
!1221 = !DISubroutineType(types: !1222)
!1222 = !{!1223, !1223, !121}
!1223 = !DIDerivedType(tag: DW_TAG_reference_type, baseType: !1224, size: 64)
!1224 = !DICompositeType(tag: DW_TAG_class_type, name: "basic_ostream<char, std::char_traits<char> >", scope: !2, file: !1225, line: 359, size: 2176, flags: DIFlagFwdDecl | DIFlagNonTrivial)
!1225 = !DIFile(filename: "/opt/rh/devtoolset-10/root/usr/lib/gcc/x86_64-redhat-linux/10/../../../../include/c++/10/bits/ostream.tcc", directory: "")
!1226 = !{!1218, !1227}
!1227 = !DILocalVariable(name: "__s", arg: 2, scope: !1219, file: !1220, line: 606, type: !121)
!1228 = !{!1229}
!1229 = !DITemplateTypeParameter(name: "_Traits", type: !1230)
!1230 = distinct !DICompositeType(tag: DW_TAG_structure_type, name: "char_traits<char>", scope: !2, file: !1231, line: 316, size: 8, flags: DIFlagTypePassByValue, elements: !1232, templateParams: !1281, identifier: "_ZTSSt11char_traitsIcE")
!1231 = !DIFile(filename: "/opt/rh/devtoolset-10/root/usr/lib/gcc/x86_64-redhat-linux/10/../../../../include/c++/10/bits/char_traits.h", directory: "")
!1232 = !{!1233, !1240, !1243, !1244, !1249, !1252, !1255, !1259, !1260, !1263, !1269, !1272, !1275, !1278}
!1233 = !DISubprogram(name: "assign", linkageName: "_ZNSt11char_traitsIcE6assignERcRKc", scope: !1230, file: !1231, line: 328, type: !1234, scopeLine: 328, flags: DIFlagPrototyped | DIFlagStaticMember, spFlags: DISPFlagOptimized)
!1234 = !DISubroutineType(types: !1235)
!1235 = !{null, !1236, !1238}
!1236 = !DIDerivedType(tag: DW_TAG_reference_type, baseType: !1237, size: 64)
!1237 = !DIDerivedType(tag: DW_TAG_typedef, name: "char_type", scope: !1230, file: !1231, line: 318, baseType: !23)
!1238 = !DIDerivedType(tag: DW_TAG_reference_type, baseType: !1239, size: 64)
!1239 = !DIDerivedType(tag: DW_TAG_const_type, baseType: !1237)
!1240 = !DISubprogram(name: "eq", linkageName: "_ZNSt11char_traitsIcE2eqERKcS2_", scope: !1230, file: !1231, line: 332, type: !1241, scopeLine: 332, flags: DIFlagPrototyped | DIFlagStaticMember, spFlags: DISPFlagOptimized)
!1241 = !DISubroutineType(types: !1242)
!1242 = !{!24, !1238, !1238}
!1243 = !DISubprogram(name: "lt", linkageName: "_ZNSt11char_traitsIcE2ltERKcS2_", scope: !1230, file: !1231, line: 336, type: !1241, scopeLine: 336, flags: DIFlagPrototyped | DIFlagStaticMember, spFlags: DISPFlagOptimized)
!1244 = !DISubprogram(name: "compare", linkageName: "_ZNSt11char_traitsIcE7compareEPKcS2_m", scope: !1230, file: !1231, line: 344, type: !1245, scopeLine: 344, flags: DIFlagPrototyped | DIFlagStaticMember, spFlags: DISPFlagOptimized)
!1245 = !DISubroutineType(types: !1246)
!1246 = !{!11, !1247, !1247, !1248}
!1247 = !DIDerivedType(tag: DW_TAG_pointer_type, baseType: !1239, size: 64)
!1248 = !DIDerivedType(tag: DW_TAG_typedef, name: "size_t", scope: !2, file: !28, line: 2363, baseType: !142)
!1249 = !DISubprogram(name: "length", linkageName: "_ZNSt11char_traitsIcE6lengthEPKc", scope: !1230, file: !1231, line: 358, type: !1250, scopeLine: 358, flags: DIFlagPrototyped | DIFlagStaticMember, spFlags: DISPFlagOptimized)
!1250 = !DISubroutineType(types: !1251)
!1251 = !{!1248, !1247}
!1252 = !DISubprogram(name: "find", linkageName: "_ZNSt11char_traitsIcE4findEPKcmRS1_", scope: !1230, file: !1231, line: 368, type: !1253, scopeLine: 368, flags: DIFlagPrototyped | DIFlagStaticMember, spFlags: DISPFlagOptimized)
!1253 = !DISubroutineType(types: !1254)
!1254 = !{!1247, !1247, !1248, !1238}
!1255 = !DISubprogram(name: "move", linkageName: "_ZNSt11char_traitsIcE4moveEPcPKcm", scope: !1230, file: !1231, line: 382, type: !1256, scopeLine: 382, flags: DIFlagPrototyped | DIFlagStaticMember, spFlags: DISPFlagOptimized)
!1256 = !DISubroutineType(types: !1257)
!1257 = !{!1258, !1258, !1247, !1248}
!1258 = !DIDerivedType(tag: DW_TAG_pointer_type, baseType: !1237, size: 64)
!1259 = !DISubprogram(name: "copy", linkageName: "_ZNSt11char_traitsIcE4copyEPcPKcm", scope: !1230, file: !1231, line: 394, type: !1256, scopeLine: 394, flags: DIFlagPrototyped | DIFlagStaticMember, spFlags: DISPFlagOptimized)
!1260 = !DISubprogram(name: "assign", linkageName: "_ZNSt11char_traitsIcE6assignEPcmc", scope: !1230, file: !1231, line: 406, type: !1261, scopeLine: 406, flags: DIFlagPrototyped | DIFlagStaticMember, spFlags: DISPFlagOptimized)
!1261 = !DISubroutineType(types: !1262)
!1262 = !{!1258, !1258, !1248, !1237}
!1263 = !DISubprogram(name: "to_char_type", linkageName: "_ZNSt11char_traitsIcE12to_char_typeERKi", scope: !1230, file: !1231, line: 418, type: !1264, scopeLine: 418, flags: DIFlagPrototyped | DIFlagStaticMember, spFlags: DISPFlagOptimized)
!1264 = !DISubroutineType(types: !1265)
!1265 = !{!1237, !1266}
!1266 = !DIDerivedType(tag: DW_TAG_reference_type, baseType: !1267, size: 64)
!1267 = !DIDerivedType(tag: DW_TAG_const_type, baseType: !1268)
!1268 = !DIDerivedType(tag: DW_TAG_typedef, name: "int_type", scope: !1230, file: !1231, line: 319, baseType: !11)
!1269 = !DISubprogram(name: "to_int_type", linkageName: "_ZNSt11char_traitsIcE11to_int_typeERKc", scope: !1230, file: !1231, line: 424, type: !1270, scopeLine: 424, flags: DIFlagPrototyped | DIFlagStaticMember, spFlags: DISPFlagOptimized)
!1270 = !DISubroutineType(types: !1271)
!1271 = !{!1268, !1238}
!1272 = !DISubprogram(name: "eq_int_type", linkageName: "_ZNSt11char_traitsIcE11eq_int_typeERKiS2_", scope: !1230, file: !1231, line: 428, type: !1273, scopeLine: 428, flags: DIFlagPrototyped | DIFlagStaticMember, spFlags: DISPFlagOptimized)
!1273 = !DISubroutineType(types: !1274)
!1274 = !{!24, !1266, !1266}
!1275 = !DISubprogram(name: "eof", linkageName: "_ZNSt11char_traitsIcE3eofEv", scope: !1230, file: !1231, line: 432, type: !1276, scopeLine: 432, flags: DIFlagPrototyped | DIFlagStaticMember, spFlags: DISPFlagOptimized)
!1276 = !DISubroutineType(types: !1277)
!1277 = !{!1268}
!1278 = !DISubprogram(name: "not_eof", linkageName: "_ZNSt11char_traitsIcE7not_eofERKi", scope: !1230, file: !1231, line: 436, type: !1279, scopeLine: 436, flags: DIFlagPrototyped | DIFlagStaticMember, spFlags: DISPFlagOptimized)
!1279 = !DISubroutineType(types: !1280)
!1280 = !{!1268, !1266}
!1281 = !{!1282}
!1282 = !DITemplateTypeParameter(name: "_CharT", type: !23)
!1283 = !DILocation(line: 0, scope: !1219, inlinedAt: !1284)
!1284 = distinct !DILocation(line: 81, column: 15, scope: !1157)
!1285 = !DILocation(line: 611, column: 2, scope: !1286, inlinedAt: !1284)
!1286 = distinct !DILexicalBlock(scope: !1219, file: !1220, line: 608, column: 11)
!1287 = !DILocation(line: 81, column: 29, scope: !1157)
!1288 = !DILocation(line: 0, scope: !1219, inlinedAt: !1289)
!1289 = distinct !DILocation(line: 81, column: 34, scope: !1157)
!1290 = !DILocation(line: 611, column: 2, scope: !1286, inlinedAt: !1289)
!1291 = !DILocalVariable(name: "this", arg: 1, scope: !1292, type: !1304, flags: DIFlagArtificial | DIFlagObjectPointer)
!1292 = distinct !DISubprogram(name: "operator<<", linkageName: "_ZNSolsEPFRSoS_E", scope: !1224, file: !1220, line: 108, type: !1293, scopeLine: 109, flags: DIFlagPrototyped | DIFlagAllCallsDescribed, spFlags: DISPFlagDefinition | DISPFlagOptimized, unit: !7, declaration: !1301, retainedNodes: !1302)
!1293 = !DISubroutineType(types: !1294)
!1294 = !{!1295, !1297, !1298}
!1295 = !DIDerivedType(tag: DW_TAG_reference_type, baseType: !1296, size: 64)
!1296 = !DIDerivedType(tag: DW_TAG_typedef, name: "__ostream_type", scope: !1224, file: !1220, line: 71, baseType: !1224)
!1297 = !DIDerivedType(tag: DW_TAG_pointer_type, baseType: !1224, size: 64, flags: DIFlagArtificial | DIFlagObjectPointer)
!1298 = !DIDerivedType(tag: DW_TAG_pointer_type, baseType: !1299, size: 64)
!1299 = !DISubroutineType(types: !1300)
!1300 = !{!1295, !1295}
!1301 = !DISubprogram(name: "operator<<", linkageName: "_ZNSolsEPFRSoS_E", scope: !1224, file: !1220, line: 108, type: !1293, scopeLine: 108, flags: DIFlagPublic | DIFlagPrototyped, spFlags: DISPFlagOptimized)
!1302 = !{!1291, !1303}
!1303 = !DILocalVariable(name: "__pf", arg: 2, scope: !1292, file: !1220, line: 108, type: !1298)
!1304 = !DIDerivedType(tag: DW_TAG_pointer_type, baseType: !1224, size: 64)
!1305 = !DILocation(line: 0, scope: !1292, inlinedAt: !1306)
!1306 = distinct !DILocation(line: 81, column: 49, scope: !1157)
!1307 = !DILocalVariable(name: "__os", arg: 1, scope: !1308, file: !1220, line: 681, type: !1223)
!1308 = distinct !DISubprogram(name: "endl<char, std::char_traits<char> >", linkageName: "_ZSt4endlIcSt11char_traitsIcEERSt13basic_ostreamIT_T0_ES6_", scope: !2, file: !1220, line: 681, type: !1309, scopeLine: 682, flags: DIFlagPrototyped | DIFlagAllCallsDescribed, spFlags: DISPFlagDefinition | DISPFlagOptimized, unit: !7, templateParams: !1312, retainedNodes: !1311)
!1309 = !DISubroutineType(types: !1310)
!1310 = !{!1223, !1223}
!1311 = !{!1307}
!1312 = !{!1282, !1229}
!1313 = !DILocation(line: 0, scope: !1308, inlinedAt: !1314)
!1314 = distinct !DILocation(line: 113, column: 9, scope: !1292, inlinedAt: !1306)
!1315 = !DILocation(line: 682, column: 29, scope: !1308, inlinedAt: !1314)
!1316 = !{!1317, !1317, i64 0}
!1317 = !{!"vtable pointer", !961, i64 0}
!1318 = !DILocalVariable(name: "this", arg: 1, scope: !1319, type: !1331, flags: DIFlagArtificial | DIFlagObjectPointer)
!1319 = distinct !DISubprogram(name: "widen", linkageName: "_ZNKSt9basic_iosIcSt11char_traitsIcEE5widenEc", scope: !1321, file: !1320, line: 449, type: !1323, scopeLine: 450, flags: DIFlagPrototyped | DIFlagAllCallsDescribed, spFlags: DISPFlagDefinition | DISPFlagOptimized, unit: !7, declaration: !1328, retainedNodes: !1329)
!1320 = !DIFile(filename: "/opt/rh/devtoolset-10/root/usr/lib/gcc/x86_64-redhat-linux/10/../../../../include/c++/10/bits/basic_ios.h", directory: "")
!1321 = !DICompositeType(tag: DW_TAG_class_type, name: "basic_ios<char, std::char_traits<char> >", scope: !2, file: !1322, line: 178, size: 2112, flags: DIFlagFwdDecl | DIFlagNonTrivial)
!1322 = !DIFile(filename: "/opt/rh/devtoolset-10/root/usr/lib/gcc/x86_64-redhat-linux/10/../../../../include/c++/10/bits/basic_ios.tcc", directory: "")
!1323 = !DISubroutineType(types: !1324)
!1324 = !{!1325, !1326, !23}
!1325 = !DIDerivedType(tag: DW_TAG_typedef, name: "char_type", scope: !1321, file: !1320, line: 76, baseType: !23)
!1326 = !DIDerivedType(tag: DW_TAG_pointer_type, baseType: !1327, size: 64, flags: DIFlagArtificial | DIFlagObjectPointer)
!1327 = !DIDerivedType(tag: DW_TAG_const_type, baseType: !1321)
!1328 = !DISubprogram(name: "widen", linkageName: "_ZNKSt9basic_iosIcSt11char_traitsIcEE5widenEc", scope: !1321, file: !1320, line: 449, type: !1323, scopeLine: 449, flags: DIFlagPublic | DIFlagPrototyped, spFlags: DISPFlagOptimized)
!1329 = !{!1318, !1330}
!1330 = !DILocalVariable(name: "__c", arg: 2, scope: !1319, file: !1320, line: 449, type: !23)
!1331 = !DIDerivedType(tag: DW_TAG_pointer_type, baseType: !1327, size: 64)
!1332 = !DILocation(line: 0, scope: !1319, inlinedAt: !1333)
!1333 = distinct !DILocation(line: 682, column: 34, scope: !1308, inlinedAt: !1314)
!1334 = !DILocation(line: 450, column: 30, scope: !1319, inlinedAt: !1333)
!1335 = !{!1336, !1337, i64 240}
!1336 = !{!"_ZTSSt9basic_iosIcSt11char_traitsIcEE", !1337, i64 216, !960, i64 224, !1338, i64 225, !1337, i64 232, !1337, i64 240, !1337, i64 248, !1337, i64 256}
!1337 = !{!"any pointer", !960, i64 0}
!1338 = !{!"bool", !960, i64 0}
!1339 = !DILocalVariable(name: "__f", arg: 1, scope: !1340, file: !1320, line: 47, type: !1347)
!1340 = distinct !DISubprogram(name: "__check_facet<std::ctype<char> >", linkageName: "_ZSt13__check_facetISt5ctypeIcEERKT_PS3_", scope: !2, file: !1320, line: 47, type: !1341, scopeLine: 48, flags: DIFlagPrototyped | DIFlagAllCallsDescribed, spFlags: DISPFlagDefinition | DISPFlagOptimized, unit: !7, templateParams: !1349, retainedNodes: !1348)
!1341 = !DISubroutineType(types: !1342)
!1342 = !{!1343, !1347}
!1343 = !DIDerivedType(tag: DW_TAG_reference_type, baseType: !1344, size: 64)
!1344 = !DIDerivedType(tag: DW_TAG_const_type, baseType: !1345)
!1345 = !DICompositeType(tag: DW_TAG_class_type, name: "ctype<char>", scope: !2, file: !1346, line: 681, size: 4608, flags: DIFlagFwdDecl | DIFlagNonTrivial, identifier: "_ZTSSt5ctypeIcE")
!1346 = !DIFile(filename: "/opt/rh/devtoolset-10/root/usr/lib/gcc/x86_64-redhat-linux/10/../../../../include/c++/10/bits/locale_facets.h", directory: "")
!1347 = !DIDerivedType(tag: DW_TAG_pointer_type, baseType: !1344, size: 64)
!1348 = !{!1339}
!1349 = !{!1350}
!1350 = !DITemplateTypeParameter(name: "_Facet", type: !1345)
!1351 = !DILocation(line: 0, scope: !1340, inlinedAt: !1352)
!1352 = distinct !DILocation(line: 450, column: 16, scope: !1319, inlinedAt: !1333)
!1353 = !DILocation(line: 49, column: 12, scope: !1354, inlinedAt: !1352)
!1354 = distinct !DILexicalBlock(scope: !1340, file: !1320, line: 49, column: 11)
!1355 = !DILocation(line: 49, column: 11, scope: !1340, inlinedAt: !1352)
!1356 = !DILocation(line: 50, column: 2, scope: !1354, inlinedAt: !1352)
!1357 = !DILocalVariable(name: "this", arg: 1, scope: !1358, type: !1347, flags: DIFlagArtificial | DIFlagObjectPointer)
!1358 = distinct !DISubprogram(name: "widen", linkageName: "_ZNKSt5ctypeIcE5widenEc", scope: !1345, file: !1346, line: 872, type: !1359, scopeLine: 873, flags: DIFlagPrototyped | DIFlagAllCallsDescribed, spFlags: DISPFlagDefinition | DISPFlagOptimized, unit: !7, declaration: !1363, retainedNodes: !1364)
!1359 = !DISubroutineType(types: !1360)
!1360 = !{!1361, !1362, !23}
!1361 = !DIDerivedType(tag: DW_TAG_typedef, name: "char_type", scope: !1345, file: !1346, line: 686, baseType: !23)
!1362 = !DIDerivedType(tag: DW_TAG_pointer_type, baseType: !1344, size: 64, flags: DIFlagArtificial | DIFlagObjectPointer)
!1363 = !DISubprogram(name: "widen", linkageName: "_ZNKSt5ctypeIcE5widenEc", scope: !1345, file: !1346, line: 872, type: !1359, scopeLine: 872, flags: DIFlagPublic | DIFlagPrototyped, spFlags: DISPFlagOptimized)
!1364 = !{!1357, !1365}
!1365 = !DILocalVariable(name: "__c", arg: 2, scope: !1358, file: !1346, line: 872, type: !23)
!1366 = !DILocation(line: 0, scope: !1358, inlinedAt: !1367)
!1367 = distinct !DILocation(line: 450, column: 40, scope: !1319, inlinedAt: !1333)
!1368 = !DILocation(line: 874, column: 6, scope: !1369, inlinedAt: !1367)
!1369 = distinct !DILexicalBlock(scope: !1358, file: !1346, line: 874, column: 6)
!1370 = !{!1371, !960, i64 56}
!1371 = !{!"_ZTSSt5ctypeIcE", !1337, i64 16, !1338, i64 24, !1337, i64 32, !1337, i64 40, !1337, i64 48, !960, i64 56, !960, i64 57, !960, i64 313, !960, i64 569}
!1372 = !DILocation(line: 874, column: 6, scope: !1358, inlinedAt: !1367)
!1373 = !DILocation(line: 875, column: 11, scope: !1369, inlinedAt: !1367)
!1374 = !{!960, !960, i64 0}
!1375 = !DILocation(line: 875, column: 4, scope: !1369, inlinedAt: !1367)
!1376 = !DILocation(line: 876, column: 8, scope: !1358, inlinedAt: !1367)
!1377 = !DILocation(line: 877, column: 15, scope: !1358, inlinedAt: !1367)
!1378 = !DILocation(line: 877, column: 2, scope: !1358, inlinedAt: !1367)
!1379 = !DILocation(line: 682, column: 25, scope: !1308, inlinedAt: !1314)
!1380 = !DILocalVariable(name: "__os", arg: 1, scope: !1381, file: !1220, line: 703, type: !1223)
!1381 = distinct !DISubprogram(name: "flush<char, std::char_traits<char> >", linkageName: "_ZSt5flushIcSt11char_traitsIcEERSt13basic_ostreamIT_T0_ES6_", scope: !2, file: !1220, line: 703, type: !1309, scopeLine: 704, flags: DIFlagPrototyped | DIFlagAllCallsDescribed, spFlags: DISPFlagDefinition | DISPFlagOptimized, unit: !7, templateParams: !1312, retainedNodes: !1382)
!1382 = !{!1380}
!1383 = !DILocation(line: 0, scope: !1381, inlinedAt: !1384)
!1384 = distinct !DILocation(line: 682, column: 14, scope: !1308, inlinedAt: !1314)
!1385 = !DILocation(line: 704, column: 19, scope: !1381, inlinedAt: !1384)
!1386 = !DILocation(line: 83, column: 5, scope: !1157)
!1387 = !DILocation(line: 83, column: 20, scope: !1157)
!1388 = !DILocation(line: 83, column: 24, scope: !1157)
!1389 = !DILocation(line: 84, column: 5, scope: !1157)
!1390 = !DILocation(line: 85, column: 5, scope: !1157)
!1391 = !DILocation(line: 86, column: 5, scope: !1157)
!1392 = !DILocation(line: 0, scope: !1123, inlinedAt: !1393)
!1393 = distinct !DILocation(line: 87, column: 38, scope: !1157)
!1394 = !DILocation(line: 67, column: 16, scope: !1123, inlinedAt: !1393)
!1395 = !DILocation(line: 67, column: 43, scope: !1123, inlinedAt: !1393)
!1396 = !DILocation(line: 0, scope: !1123, inlinedAt: !1397)
!1397 = distinct !DILocation(line: 87, column: 50, scope: !1157)
!1398 = !DILocation(line: 67, column: 16, scope: !1123, inlinedAt: !1397)
!1399 = !DILocation(line: 67, column: 43, scope: !1123, inlinedAt: !1397)
!1400 = !DILocation(line: 67, column: 37, scope: !1123, inlinedAt: !1393)
!1401 = !DILocation(line: 87, column: 49, scope: !1157)
!1402 = !DILocation(line: 87, column: 62, scope: !1157)
!1403 = !DILocation(line: 0, scope: !1157)
!1404 = !DILocation(line: 0, scope: !1219, inlinedAt: !1405)
!1405 = distinct !DILocation(line: 88, column: 15, scope: !1157)
!1406 = !DILocation(line: 611, column: 2, scope: !1286, inlinedAt: !1405)
!1407 = !DILocation(line: 88, column: 35, scope: !1157)
!1408 = !DILocation(line: 88, column: 45, scope: !1157)
!1409 = !DILocalVariable(name: "this", arg: 1, scope: !1410, type: !1304, flags: DIFlagArtificial | DIFlagObjectPointer)
!1410 = distinct !DISubprogram(name: "operator<<", linkageName: "_ZNSolsEd", scope: !1224, file: !1220, line: 220, type: !1411, scopeLine: 221, flags: DIFlagPrototyped | DIFlagAllCallsDescribed, spFlags: DISPFlagDefinition | DISPFlagOptimized, unit: !7, declaration: !1413, retainedNodes: !1414)
!1411 = !DISubroutineType(types: !1412)
!1412 = !{!1295, !1297, !120}
!1413 = !DISubprogram(name: "operator<<", linkageName: "_ZNSolsEd", scope: !1224, file: !1220, line: 220, type: !1411, scopeLine: 220, flags: DIFlagPublic | DIFlagPrototyped, spFlags: DISPFlagOptimized)
!1414 = !{!1409, !1415}
!1415 = !DILocalVariable(name: "__f", arg: 2, scope: !1410, file: !1220, line: 220, type: !120)
!1416 = !DILocation(line: 0, scope: !1410, inlinedAt: !1417)
!1417 = distinct !DILocation(line: 88, column: 32, scope: !1157)
!1418 = !DILocation(line: 221, column: 16, scope: !1410, inlinedAt: !1417)
!1419 = !DILocation(line: 0, scope: !1219, inlinedAt: !1420)
!1420 = distinct !DILocation(line: 88, column: 53, scope: !1157)
!1421 = !DILocation(line: 611, column: 2, scope: !1286, inlinedAt: !1420)
!1422 = !DILocation(line: 0, scope: !1163)
!1423 = !DILocation(line: 91, column: 10, scope: !1163)
!1424 = !DILocation(line: 77, column: 7, scope: !1173)
!1425 = !DILocation(line: 76, column: 23, scope: !1173)
!1426 = distinct !{!1426, !1171, !1176, !1064, !1427, !1177}
!1427 = !{!"llvm.loop.unroll.runtime.disable"}
!1428 = !DILocation(line: 91, column: 23, scope: !1429)
!1429 = distinct !DILexicalBlock(scope: !1163, file: !8, line: 91, column: 5)
!1430 = !DILocation(line: 91, column: 5, scope: !1163)
!1431 = !DILocation(line: 92, column: 11, scope: !1432)
!1432 = distinct !DILexicalBlock(scope: !1433, file: !8, line: 92, column: 11)
!1433 = distinct !DILexicalBlock(scope: !1429, file: !8, line: 91, column: 37)
!1434 = !DILocation(line: 92, column: 23, scope: !1432)
!1435 = !DILocation(line: 92, column: 19, scope: !1432)
!1436 = !DILocation(line: 92, column: 16, scope: !1432)
!1437 = !DILocation(line: 92, column: 28, scope: !1432)
!1438 = distinct !{!1438, !1430, !1439, !1064}
!1439 = !DILocation(line: 98, column: 5, scope: !1163)
!1440 = !DILocation(line: 0, scope: !1219, inlinedAt: !1441)
!1441 = distinct !DILocation(line: 93, column: 12, scope: !1442)
!1442 = distinct !DILexicalBlock(scope: !1432, file: !8, line: 92, column: 42)
!1443 = !DILocation(line: 611, column: 2, scope: !1286, inlinedAt: !1441)
!1444 = !DILocation(line: 93, column: 44, scope: !1442)
!1445 = !DILocation(line: 0, scope: !1219, inlinedAt: !1446)
!1446 = distinct !DILocation(line: 93, column: 49, scope: !1442)
!1447 = !DILocation(line: 611, column: 2, scope: !1286, inlinedAt: !1446)
!1448 = !DILocation(line: 94, column: 8, scope: !1442)
!1449 = !DILocation(line: 94, column: 5, scope: !1442)
!1450 = !DILocation(line: 0, scope: !1219, inlinedAt: !1451)
!1451 = distinct !DILocation(line: 94, column: 13, scope: !1442)
!1452 = !DILocation(line: 611, column: 2, scope: !1286, inlinedAt: !1451)
!1453 = !DILocation(line: 94, column: 32, scope: !1442)
!1454 = !DILocation(line: 94, column: 29, scope: !1442)
!1455 = !DILocation(line: 0, scope: !1292, inlinedAt: !1456)
!1456 = distinct !DILocation(line: 94, column: 41, scope: !1442)
!1457 = !DILocation(line: 0, scope: !1308, inlinedAt: !1458)
!1458 = distinct !DILocation(line: 113, column: 9, scope: !1292, inlinedAt: !1456)
!1459 = !DILocation(line: 682, column: 29, scope: !1308, inlinedAt: !1458)
!1460 = !DILocation(line: 0, scope: !1319, inlinedAt: !1461)
!1461 = distinct !DILocation(line: 682, column: 34, scope: !1308, inlinedAt: !1458)
!1462 = !DILocation(line: 450, column: 30, scope: !1319, inlinedAt: !1461)
!1463 = !DILocation(line: 0, scope: !1340, inlinedAt: !1464)
!1464 = distinct !DILocation(line: 450, column: 16, scope: !1319, inlinedAt: !1461)
!1465 = !DILocation(line: 49, column: 12, scope: !1354, inlinedAt: !1464)
!1466 = !DILocation(line: 49, column: 11, scope: !1340, inlinedAt: !1464)
!1467 = !DILocation(line: 50, column: 2, scope: !1354, inlinedAt: !1464)
!1468 = !DILocation(line: 0, scope: !1358, inlinedAt: !1469)
!1469 = distinct !DILocation(line: 450, column: 40, scope: !1319, inlinedAt: !1461)
!1470 = !DILocation(line: 874, column: 6, scope: !1369, inlinedAt: !1469)
!1471 = !DILocation(line: 874, column: 6, scope: !1358, inlinedAt: !1469)
!1472 = !DILocation(line: 875, column: 11, scope: !1369, inlinedAt: !1469)
!1473 = !DILocation(line: 875, column: 4, scope: !1369, inlinedAt: !1469)
!1474 = !DILocation(line: 876, column: 8, scope: !1358, inlinedAt: !1469)
!1475 = !DILocation(line: 877, column: 15, scope: !1358, inlinedAt: !1469)
!1476 = !DILocation(line: 877, column: 2, scope: !1358, inlinedAt: !1469)
!1477 = !DILocation(line: 0, scope: !1219, inlinedAt: !1478)
!1478 = distinct !DILocation(line: 100, column: 15, scope: !1157)
!1479 = !DILocation(line: 611, column: 2, scope: !1286, inlinedAt: !1478)
!1480 = !DILocation(line: 0, scope: !1292, inlinedAt: !1481)
!1481 = distinct !DILocation(line: 100, column: 36, scope: !1157)
!1482 = !DILocation(line: 0, scope: !1308, inlinedAt: !1483)
!1483 = distinct !DILocation(line: 113, column: 9, scope: !1292, inlinedAt: !1481)
!1484 = !DILocation(line: 682, column: 29, scope: !1308, inlinedAt: !1483)
!1485 = !DILocation(line: 0, scope: !1319, inlinedAt: !1486)
!1486 = distinct !DILocation(line: 682, column: 34, scope: !1308, inlinedAt: !1483)
!1487 = !DILocation(line: 450, column: 30, scope: !1319, inlinedAt: !1486)
!1488 = !DILocation(line: 0, scope: !1340, inlinedAt: !1489)
!1489 = distinct !DILocation(line: 450, column: 16, scope: !1319, inlinedAt: !1486)
!1490 = !DILocation(line: 49, column: 12, scope: !1354, inlinedAt: !1489)
!1491 = !DILocation(line: 49, column: 11, scope: !1340, inlinedAt: !1489)
!1492 = !DILocation(line: 50, column: 2, scope: !1354, inlinedAt: !1489)
!1493 = !DILocation(line: 0, scope: !1358, inlinedAt: !1494)
!1494 = distinct !DILocation(line: 450, column: 40, scope: !1319, inlinedAt: !1486)
!1495 = !DILocation(line: 874, column: 6, scope: !1369, inlinedAt: !1494)
!1496 = !DILocation(line: 874, column: 6, scope: !1358, inlinedAt: !1494)
!1497 = !DILocation(line: 875, column: 11, scope: !1369, inlinedAt: !1494)
!1498 = !DILocation(line: 875, column: 4, scope: !1369, inlinedAt: !1494)
!1499 = !DILocation(line: 876, column: 8, scope: !1358, inlinedAt: !1494)
!1500 = !DILocation(line: 877, column: 15, scope: !1358, inlinedAt: !1494)
!1501 = !DILocation(line: 877, column: 2, scope: !1358, inlinedAt: !1494)
!1502 = !DILocation(line: 682, column: 25, scope: !1308, inlinedAt: !1483)
!1503 = !DILocation(line: 0, scope: !1381, inlinedAt: !1504)
!1504 = distinct !DILocation(line: 682, column: 14, scope: !1308, inlinedAt: !1483)
!1505 = !DILocation(line: 704, column: 19, scope: !1381, inlinedAt: !1504)
!1506 = !DILocation(line: 102, column: 3, scope: !1158)
!1507 = !DILocation(line: 75, column: 26, scope: !1158)
!1508 = distinct !{!1508, !1169, !1509, !1064}
!1509 = !DILocation(line: 102, column: 3, scope: !1154)
!1510 = !DILocation(line: 682, column: 25, scope: !1308, inlinedAt: !1458)
!1511 = !DILocation(line: 0, scope: !1381, inlinedAt: !1512)
!1512 = distinct !DILocation(line: 682, column: 14, scope: !1308, inlinedAt: !1458)
!1513 = !DILocation(line: 704, column: 19, scope: !1381, inlinedAt: !1512)
!1514 = !DILocation(line: 95, column: 2, scope: !1442)
!1515 = !DILocation(line: 103, column: 3, scope: !1146)
!1516 = !DILocation(line: 104, column: 3, scope: !1146)
!1517 = !DILocation(line: 105, column: 1, scope: !1146)
!1518 = !DISubprogram(name: "gettimeofday", scope: !1519, file: !1519, line: 72, type: !1520, flags: DIFlagPrototyped, spFlags: DISPFlagOptimized, retainedNodes: !37)
!1519 = !DIFile(filename: "/usr/include/sys/time.h", directory: "", checksumkind: CSK_MD5, checksum: "3b3cbcac52b1954fa045aa74bfcd1a38")
!1520 = !DISubroutineType(types: !1521)
!1521 = !{!11, !1522, !1523}
!1522 = !DIDerivedType(tag: DW_TAG_restrict_type, baseType: !1126)
!1523 = !DIDerivedType(tag: DW_TAG_typedef, name: "__timezone_ptr_t", file: !1519, line: 62, baseType: !1524)
!1524 = !DIDerivedType(tag: DW_TAG_restrict_type, baseType: !1525)
!1525 = !DIDerivedType(tag: DW_TAG_pointer_type, baseType: !1526, size: 64)
!1526 = !DICompositeType(tag: DW_TAG_structure_type, name: "timezone", file: !1519, line: 56, size: 64, flags: DIFlagFwdDecl, identifier: "_ZTS8timezone")
!1527 = distinct !DISubprogram(name: "main", scope: !8, file: !8, line: 107, type: !1528, scopeLine: 107, flags: DIFlagPrototyped | DIFlagAllCallsDescribed, spFlags: DISPFlagDefinition | DISPFlagOptimized, unit: !7, retainedNodes: !1530)
!1528 = !DISubroutineType(types: !1529)
!1529 = !{!11, !11, !21}
!1530 = !{!1531, !1532, !1533, !1534, !1535}
!1531 = !DILocalVariable(name: "argc", arg: 1, scope: !1527, file: !8, line: 107, type: !11)
!1532 = !DILocalVariable(name: "argv", arg: 2, scope: !1527, file: !8, line: 107, type: !21)
!1533 = !DILocalVariable(name: "n", scope: !1527, file: !8, line: 109, type: !11)
!1534 = !DILocalVariable(name: "round", scope: !1527, file: !8, line: 110, type: !11)
!1535 = !DILocalVariable(name: "ret", scope: !1527, file: !8, line: 127, type: !11)
!1536 = !DILocation(line: 0, scope: !1527)
!1537 = !DILocation(line: 111, column: 12, scope: !1538)
!1538 = distinct !DILexicalBlock(scope: !1527, file: !8, line: 111, column: 7)
!1539 = !DILocation(line: 111, column: 7, scope: !1527)
!1540 = !DILocation(line: 112, column: 19, scope: !1541)
!1541 = distinct !DILexicalBlock(scope: !1538, file: !8, line: 111, column: 17)
!1542 = !{!1337, !1337, i64 0}
!1543 = !DILocation(line: 0, scope: !124, inlinedAt: !1544)
!1544 = distinct !DILocation(line: 112, column: 9, scope: !1541)
!1545 = !DILocation(line: 280, column: 16, scope: !124, inlinedAt: !1544)
!1546 = !DILocation(line: 113, column: 11, scope: !1547)
!1547 = distinct !DILexicalBlock(scope: !1541, file: !8, line: 113, column: 9)
!1548 = !DILocation(line: 113, column: 9, scope: !1541)
!1549 = !DILocation(line: 0, scope: !1219, inlinedAt: !1550)
!1550 = distinct !DILocation(line: 114, column: 17, scope: !1551)
!1551 = distinct !DILexicalBlock(scope: !1547, file: !8, line: 113, column: 17)
!1552 = !DILocation(line: 611, column: 2, scope: !1286, inlinedAt: !1550)
!1553 = !DILocation(line: 0, scope: !1292, inlinedAt: !1554)
!1554 = distinct !DILocation(line: 114, column: 39, scope: !1551)
!1555 = !DILocation(line: 0, scope: !1308, inlinedAt: !1556)
!1556 = distinct !DILocation(line: 113, column: 9, scope: !1292, inlinedAt: !1554)
!1557 = !DILocation(line: 682, column: 29, scope: !1308, inlinedAt: !1556)
!1558 = !DILocation(line: 0, scope: !1319, inlinedAt: !1559)
!1559 = distinct !DILocation(line: 682, column: 34, scope: !1308, inlinedAt: !1556)
!1560 = !DILocation(line: 450, column: 30, scope: !1319, inlinedAt: !1559)
!1561 = !DILocation(line: 0, scope: !1340, inlinedAt: !1562)
!1562 = distinct !DILocation(line: 450, column: 16, scope: !1319, inlinedAt: !1559)
!1563 = !DILocation(line: 49, column: 12, scope: !1354, inlinedAt: !1562)
!1564 = !DILocation(line: 49, column: 11, scope: !1340, inlinedAt: !1562)
!1565 = !DILocation(line: 50, column: 2, scope: !1354, inlinedAt: !1562)
!1566 = !DILocation(line: 0, scope: !1358, inlinedAt: !1567)
!1567 = distinct !DILocation(line: 450, column: 40, scope: !1319, inlinedAt: !1559)
!1568 = !DILocation(line: 874, column: 6, scope: !1369, inlinedAt: !1567)
!1569 = !DILocation(line: 874, column: 6, scope: !1358, inlinedAt: !1567)
!1570 = !DILocation(line: 875, column: 11, scope: !1369, inlinedAt: !1567)
!1571 = !DILocation(line: 875, column: 4, scope: !1369, inlinedAt: !1567)
!1572 = !DILocation(line: 876, column: 8, scope: !1358, inlinedAt: !1567)
!1573 = !DILocation(line: 877, column: 15, scope: !1358, inlinedAt: !1567)
!1574 = !DILocation(line: 877, column: 2, scope: !1358, inlinedAt: !1567)
!1575 = !DILocation(line: 682, column: 25, scope: !1308, inlinedAt: !1556)
!1576 = !DILocation(line: 0, scope: !1381, inlinedAt: !1577)
!1577 = distinct !DILocation(line: 682, column: 14, scope: !1308, inlinedAt: !1556)
!1578 = !DILocation(line: 704, column: 19, scope: !1381, inlinedAt: !1577)
!1579 = !DILocation(line: 0, scope: !1219, inlinedAt: !1580)
!1580 = distinct !DILocation(line: 115, column: 17, scope: !1551)
!1581 = !DILocation(line: 611, column: 2, scope: !1286, inlinedAt: !1580)
!1582 = !DILocation(line: 0, scope: !1292, inlinedAt: !1583)
!1583 = distinct !DILocation(line: 115, column: 37, scope: !1551)
!1584 = !DILocation(line: 0, scope: !1308, inlinedAt: !1585)
!1585 = distinct !DILocation(line: 113, column: 9, scope: !1292, inlinedAt: !1583)
!1586 = !DILocation(line: 682, column: 29, scope: !1308, inlinedAt: !1585)
!1587 = !DILocation(line: 0, scope: !1319, inlinedAt: !1588)
!1588 = distinct !DILocation(line: 682, column: 34, scope: !1308, inlinedAt: !1585)
!1589 = !DILocation(line: 450, column: 30, scope: !1319, inlinedAt: !1588)
!1590 = !DILocation(line: 0, scope: !1340, inlinedAt: !1591)
!1591 = distinct !DILocation(line: 450, column: 16, scope: !1319, inlinedAt: !1588)
!1592 = !DILocation(line: 49, column: 12, scope: !1354, inlinedAt: !1591)
!1593 = !DILocation(line: 49, column: 11, scope: !1340, inlinedAt: !1591)
!1594 = !DILocation(line: 50, column: 2, scope: !1354, inlinedAt: !1591)
!1595 = !DILocation(line: 0, scope: !1358, inlinedAt: !1596)
!1596 = distinct !DILocation(line: 450, column: 40, scope: !1319, inlinedAt: !1588)
!1597 = !DILocation(line: 874, column: 6, scope: !1369, inlinedAt: !1596)
!1598 = !DILocation(line: 874, column: 6, scope: !1358, inlinedAt: !1596)
!1599 = !DILocation(line: 875, column: 11, scope: !1369, inlinedAt: !1596)
!1600 = !DILocation(line: 875, column: 4, scope: !1369, inlinedAt: !1596)
!1601 = !DILocation(line: 876, column: 8, scope: !1358, inlinedAt: !1596)
!1602 = !DILocation(line: 877, column: 15, scope: !1358, inlinedAt: !1596)
!1603 = !DILocation(line: 877, column: 2, scope: !1358, inlinedAt: !1596)
!1604 = !DILocation(line: 682, column: 25, scope: !1308, inlinedAt: !1585)
!1605 = !DILocation(line: 0, scope: !1381, inlinedAt: !1606)
!1606 = distinct !DILocation(line: 682, column: 14, scope: !1308, inlinedAt: !1585)
!1607 = !DILocation(line: 704, column: 19, scope: !1381, inlinedAt: !1606)
!1608 = !DILocation(line: 0, scope: !1219, inlinedAt: !1609)
!1609 = distinct !DILocation(line: 116, column: 17, scope: !1551)
!1610 = !DILocation(line: 611, column: 2, scope: !1286, inlinedAt: !1609)
!1611 = !DILocation(line: 0, scope: !1292, inlinedAt: !1612)
!1612 = distinct !DILocation(line: 116, column: 60, scope: !1551)
!1613 = !DILocation(line: 0, scope: !1308, inlinedAt: !1614)
!1614 = distinct !DILocation(line: 113, column: 9, scope: !1292, inlinedAt: !1612)
!1615 = !DILocation(line: 682, column: 29, scope: !1308, inlinedAt: !1614)
!1616 = !DILocation(line: 0, scope: !1319, inlinedAt: !1617)
!1617 = distinct !DILocation(line: 682, column: 34, scope: !1308, inlinedAt: !1614)
!1618 = !DILocation(line: 450, column: 30, scope: !1319, inlinedAt: !1617)
!1619 = !DILocation(line: 0, scope: !1340, inlinedAt: !1620)
!1620 = distinct !DILocation(line: 450, column: 16, scope: !1319, inlinedAt: !1617)
!1621 = !DILocation(line: 49, column: 12, scope: !1354, inlinedAt: !1620)
!1622 = !DILocation(line: 49, column: 11, scope: !1340, inlinedAt: !1620)
!1623 = !DILocation(line: 50, column: 2, scope: !1354, inlinedAt: !1620)
!1624 = !DILocation(line: 0, scope: !1358, inlinedAt: !1625)
!1625 = distinct !DILocation(line: 450, column: 40, scope: !1319, inlinedAt: !1617)
!1626 = !DILocation(line: 874, column: 6, scope: !1369, inlinedAt: !1625)
!1627 = !DILocation(line: 874, column: 6, scope: !1358, inlinedAt: !1625)
!1628 = !DILocation(line: 875, column: 11, scope: !1369, inlinedAt: !1625)
!1629 = !DILocation(line: 875, column: 4, scope: !1369, inlinedAt: !1625)
!1630 = !DILocation(line: 876, column: 8, scope: !1358, inlinedAt: !1625)
!1631 = !DILocation(line: 877, column: 15, scope: !1358, inlinedAt: !1625)
!1632 = !DILocation(line: 877, column: 2, scope: !1358, inlinedAt: !1625)
!1633 = !DILocation(line: 682, column: 25, scope: !1308, inlinedAt: !1614)
!1634 = !DILocation(line: 0, scope: !1381, inlinedAt: !1635)
!1635 = distinct !DILocation(line: 682, column: 14, scope: !1308, inlinedAt: !1614)
!1636 = !DILocation(line: 704, column: 19, scope: !1381, inlinedAt: !1635)
!1637 = !DILocation(line: 117, column: 7, scope: !1551)
!1638 = !DILocation(line: 121, column: 10, scope: !1639)
!1639 = distinct !DILexicalBlock(scope: !1527, file: !8, line: 121, column: 6)
!1640 = !DILocation(line: 121, column: 6, scope: !1527)
!1641 = !DILocation(line: 122, column: 23, scope: !1642)
!1642 = distinct !DILexicalBlock(scope: !1639, file: !8, line: 121, column: 14)
!1643 = !DILocation(line: 0, scope: !124, inlinedAt: !1644)
!1644 = distinct !DILocation(line: 122, column: 13, scope: !1642)
!1645 = !DILocation(line: 280, column: 16, scope: !124, inlinedAt: !1644)
!1646 = !DILocation(line: 123, column: 3, scope: !1642)
!1647 = !DILocation(line: 127, column: 13, scope: !1527)
!1648 = !DILocation(line: 130, column: 1, scope: !1527)
!1649 = !DISubprogram(name: "rand", scope: !90, file: !90, line: 374, type: !203, flags: DIFlagPrototyped, spFlags: DISPFlagOptimized, retainedNodes: !37)
!1650 = distinct !DISubprogram(linkageName: "_GLOBAL__sub_I_qsort.cpp", scope: !455, file: !455, type: !1651, flags: DIFlagArtificial | DIFlagAllCallsDescribed, spFlags: DISPFlagLocalToUnit | DISPFlagDefinition | DISPFlagOptimized, unit: !7, retainedNodes: !37)
!1651 = !DISubroutineType(types: !37)
!1652 = !DILocation(line: 74, column: 25, scope: !1653, inlinedAt: !1655)
!1653 = !DILexicalBlockFile(scope: !1654, file: !3, discriminator: 0)
!1654 = distinct !DISubprogram(name: "__cxx_global_var_init", scope: !455, file: !455, type: !106, flags: DIFlagArtificial | DIFlagAllCallsDescribed, spFlags: DISPFlagLocalToUnit | DISPFlagDefinition | DISPFlagOptimized, unit: !7, retainedNodes: !37)
!1655 = distinct !DILocation(line: 0, scope: !1650)
!1656 = !DILocation(line: 0, scope: !1654, inlinedAt: !1655)
